
user/_stressfs:     file format elf64-littleriscv


Disassembly of section .text:

0000000000000000 <main>:
#include "user/user.h"
#include "kernel/fs.h"
#include "kernel/fcntl.h"

int main(int argc, char *argv[])
{
   0:	dd010113          	addi	sp,sp,-560
   4:	22113423          	sd	ra,552(sp)
   8:	22813023          	sd	s0,544(sp)
   c:	20913c23          	sd	s1,536(sp)
  10:	21213823          	sd	s2,528(sp)
  14:	1c00                	addi	s0,sp,560
  int fd, i;
  char path[] = "stressfs0";
  16:	00001797          	auipc	a5,0x1
  1a:	8fa78793          	addi	a5,a5,-1798 # 910 <malloc+0x11c>
  1e:	6398                	ld	a4,0(a5)
  20:	fce43823          	sd	a4,-48(s0)
  24:	0087d783          	lhu	a5,8(a5)
  28:	fcf41c23          	sh	a5,-40(s0)
  char data[512];

  printf("stressfs starting\n");
  2c:	00001517          	auipc	a0,0x1
  30:	8b450513          	addi	a0,a0,-1868 # 8e0 <malloc+0xec>
  34:	00000097          	auipc	ra,0x0
  38:	708080e7          	jalr	1800(ra) # 73c <printf>
  memset(data, 'a', sizeof(data));
  3c:	20000613          	li	a2,512
  40:	06100593          	li	a1,97
  44:	dd040513          	addi	a0,s0,-560
  48:	00000097          	auipc	ra,0x0
  4c:	150080e7          	jalr	336(ra) # 198 <memset>

  for (i = 0; i < 4; i++)
  50:	4481                	li	s1,0
  52:	4911                	li	s2,4
    if (fork() > 0)
  54:	00000097          	auipc	ra,0x0
  58:	336080e7          	jalr	822(ra) # 38a <fork>
  5c:	00a04563          	bgtz	a0,66 <main+0x66>
  for (i = 0; i < 4; i++)
  60:	2485                	addiw	s1,s1,1
  62:	ff2499e3          	bne	s1,s2,54 <main+0x54>
      break;

  printf("write %d\n", i);
  66:	85a6                	mv	a1,s1
  68:	00001517          	auipc	a0,0x1
  6c:	89050513          	addi	a0,a0,-1904 # 8f8 <malloc+0x104>
  70:	00000097          	auipc	ra,0x0
  74:	6cc080e7          	jalr	1740(ra) # 73c <printf>

  path[8] += i;
  78:	fd844783          	lbu	a5,-40(s0)
  7c:	9fa5                	addw	a5,a5,s1
  7e:	fcf40c23          	sb	a5,-40(s0)
  fd = open(path, O_CREATE | O_RDWR);
  82:	20200593          	li	a1,514
  86:	fd040513          	addi	a0,s0,-48
  8a:	00000097          	auipc	ra,0x0
  8e:	348080e7          	jalr	840(ra) # 3d2 <open>
  92:	892a                	mv	s2,a0
  94:	44d1                	li	s1,20
  for (i = 0; i < 20; i++)
    //    printf(fd, "%d\n", i);
    write(fd, data, sizeof(data));
  96:	20000613          	li	a2,512
  9a:	dd040593          	addi	a1,s0,-560
  9e:	854a                	mv	a0,s2
  a0:	00000097          	auipc	ra,0x0
  a4:	312080e7          	jalr	786(ra) # 3b2 <write>
  for (i = 0; i < 20; i++)
  a8:	34fd                	addiw	s1,s1,-1
  aa:	f4f5                	bnez	s1,96 <main+0x96>
  close(fd);
  ac:	854a                	mv	a0,s2
  ae:	00000097          	auipc	ra,0x0
  b2:	30c080e7          	jalr	780(ra) # 3ba <close>

  printf("read\n");
  b6:	00001517          	auipc	a0,0x1
  ba:	85250513          	addi	a0,a0,-1966 # 908 <malloc+0x114>
  be:	00000097          	auipc	ra,0x0
  c2:	67e080e7          	jalr	1662(ra) # 73c <printf>

  fd = open(path, O_RDONLY);
  c6:	4581                	li	a1,0
  c8:	fd040513          	addi	a0,s0,-48
  cc:	00000097          	auipc	ra,0x0
  d0:	306080e7          	jalr	774(ra) # 3d2 <open>
  d4:	892a                	mv	s2,a0
  d6:	44d1                	li	s1,20
  for (i = 0; i < 20; i++)
    read(fd, data, sizeof(data));
  d8:	20000613          	li	a2,512
  dc:	dd040593          	addi	a1,s0,-560
  e0:	854a                	mv	a0,s2
  e2:	00000097          	auipc	ra,0x0
  e6:	2c8080e7          	jalr	712(ra) # 3aa <read>
  for (i = 0; i < 20; i++)
  ea:	34fd                	addiw	s1,s1,-1
  ec:	f4f5                	bnez	s1,d8 <main+0xd8>
  close(fd);
  ee:	854a                	mv	a0,s2
  f0:	00000097          	auipc	ra,0x0
  f4:	2ca080e7          	jalr	714(ra) # 3ba <close>

  wait(0);
  f8:	4501                	li	a0,0
  fa:	00000097          	auipc	ra,0x0
  fe:	2a0080e7          	jalr	672(ra) # 39a <wait>

  exit(0);
 102:	4501                	li	a0,0
 104:	00000097          	auipc	ra,0x0
 108:	28e080e7          	jalr	654(ra) # 392 <exit>

000000000000010c <_main>:

//
// wrapper so that it's OK if main() does not call exit().
//
void _main()
{
 10c:	1141                	addi	sp,sp,-16
 10e:	e406                	sd	ra,8(sp)
 110:	e022                	sd	s0,0(sp)
 112:	0800                	addi	s0,sp,16
  extern int main();
  main();
 114:	00000097          	auipc	ra,0x0
 118:	eec080e7          	jalr	-276(ra) # 0 <main>
  exit(0);
 11c:	4501                	li	a0,0
 11e:	00000097          	auipc	ra,0x0
 122:	274080e7          	jalr	628(ra) # 392 <exit>

0000000000000126 <strcpy>:
}

char *
strcpy(char *s, const char *t)
{
 126:	1141                	addi	sp,sp,-16
 128:	e422                	sd	s0,8(sp)
 12a:	0800                	addi	s0,sp,16
  char *os;

  os = s;
  while ((*s++ = *t++) != 0)
 12c:	87aa                	mv	a5,a0
 12e:	0585                	addi	a1,a1,1
 130:	0785                	addi	a5,a5,1
 132:	fff5c703          	lbu	a4,-1(a1)
 136:	fee78fa3          	sb	a4,-1(a5)
 13a:	fb75                	bnez	a4,12e <strcpy+0x8>
    ;
  return os;
}
 13c:	6422                	ld	s0,8(sp)
 13e:	0141                	addi	sp,sp,16
 140:	8082                	ret

0000000000000142 <strcmp>:

int strcmp(const char *p, const char *q)
{
 142:	1141                	addi	sp,sp,-16
 144:	e422                	sd	s0,8(sp)
 146:	0800                	addi	s0,sp,16
  while (*p && *p == *q)
 148:	00054783          	lbu	a5,0(a0)
 14c:	cb91                	beqz	a5,160 <strcmp+0x1e>
 14e:	0005c703          	lbu	a4,0(a1)
 152:	00f71763          	bne	a4,a5,160 <strcmp+0x1e>
    p++, q++;
 156:	0505                	addi	a0,a0,1
 158:	0585                	addi	a1,a1,1
  while (*p && *p == *q)
 15a:	00054783          	lbu	a5,0(a0)
 15e:	fbe5                	bnez	a5,14e <strcmp+0xc>
  return (uchar)*p - (uchar)*q;
 160:	0005c503          	lbu	a0,0(a1)
}
 164:	40a7853b          	subw	a0,a5,a0
 168:	6422                	ld	s0,8(sp)
 16a:	0141                	addi	sp,sp,16
 16c:	8082                	ret

000000000000016e <strlen>:

uint strlen(const char *s)
{
 16e:	1141                	addi	sp,sp,-16
 170:	e422                	sd	s0,8(sp)
 172:	0800                	addi	s0,sp,16
  int n;

  for (n = 0; s[n]; n++)
 174:	00054783          	lbu	a5,0(a0)
 178:	cf91                	beqz	a5,194 <strlen+0x26>
 17a:	0505                	addi	a0,a0,1
 17c:	87aa                	mv	a5,a0
 17e:	4685                	li	a3,1
 180:	9e89                	subw	a3,a3,a0
 182:	00f6853b          	addw	a0,a3,a5
 186:	0785                	addi	a5,a5,1
 188:	fff7c703          	lbu	a4,-1(a5)
 18c:	fb7d                	bnez	a4,182 <strlen+0x14>
    ;
  return n;
}
 18e:	6422                	ld	s0,8(sp)
 190:	0141                	addi	sp,sp,16
 192:	8082                	ret
  for (n = 0; s[n]; n++)
 194:	4501                	li	a0,0
 196:	bfe5                	j	18e <strlen+0x20>

0000000000000198 <memset>:

void *
memset(void *dst, int c, uint n)
{
 198:	1141                	addi	sp,sp,-16
 19a:	e422                	sd	s0,8(sp)
 19c:	0800                	addi	s0,sp,16
  char *cdst = (char *)dst;
  int i;
  for (i = 0; i < n; i++)
 19e:	ca19                	beqz	a2,1b4 <memset+0x1c>
 1a0:	87aa                	mv	a5,a0
 1a2:	1602                	slli	a2,a2,0x20
 1a4:	9201                	srli	a2,a2,0x20
 1a6:	00a60733          	add	a4,a2,a0
  {
    cdst[i] = c;
 1aa:	00b78023          	sb	a1,0(a5)
  for (i = 0; i < n; i++)
 1ae:	0785                	addi	a5,a5,1
 1b0:	fee79de3          	bne	a5,a4,1aa <memset+0x12>
  }
  return dst;
}
 1b4:	6422                	ld	s0,8(sp)
 1b6:	0141                	addi	sp,sp,16
 1b8:	8082                	ret

00000000000001ba <strchr>:

char *
strchr(const char *s, char c)
{
 1ba:	1141                	addi	sp,sp,-16
 1bc:	e422                	sd	s0,8(sp)
 1be:	0800                	addi	s0,sp,16
  for (; *s; s++)
 1c0:	00054783          	lbu	a5,0(a0)
 1c4:	cb99                	beqz	a5,1da <strchr+0x20>
    if (*s == c)
 1c6:	00f58763          	beq	a1,a5,1d4 <strchr+0x1a>
  for (; *s; s++)
 1ca:	0505                	addi	a0,a0,1
 1cc:	00054783          	lbu	a5,0(a0)
 1d0:	fbfd                	bnez	a5,1c6 <strchr+0xc>
      return (char *)s;
  return 0;
 1d2:	4501                	li	a0,0
}
 1d4:	6422                	ld	s0,8(sp)
 1d6:	0141                	addi	sp,sp,16
 1d8:	8082                	ret
  return 0;
 1da:	4501                	li	a0,0
 1dc:	bfe5                	j	1d4 <strchr+0x1a>

00000000000001de <gets>:

char *
gets(char *buf, int max)
{
 1de:	711d                	addi	sp,sp,-96
 1e0:	ec86                	sd	ra,88(sp)
 1e2:	e8a2                	sd	s0,80(sp)
 1e4:	e4a6                	sd	s1,72(sp)
 1e6:	e0ca                	sd	s2,64(sp)
 1e8:	fc4e                	sd	s3,56(sp)
 1ea:	f852                	sd	s4,48(sp)
 1ec:	f456                	sd	s5,40(sp)
 1ee:	f05a                	sd	s6,32(sp)
 1f0:	ec5e                	sd	s7,24(sp)
 1f2:	1080                	addi	s0,sp,96
 1f4:	8baa                	mv	s7,a0
 1f6:	8a2e                	mv	s4,a1
  int i, cc;
  char c;

  for (i = 0; i + 1 < max;)
 1f8:	892a                	mv	s2,a0
 1fa:	4481                	li	s1,0
  {
    cc = read(0, &c, 1);
    if (cc < 1)
      break;
    buf[i++] = c;
    if (c == '\n' || c == '\r')
 1fc:	4aa9                	li	s5,10
 1fe:	4b35                	li	s6,13
  for (i = 0; i + 1 < max;)
 200:	89a6                	mv	s3,s1
 202:	2485                	addiw	s1,s1,1
 204:	0344d863          	bge	s1,s4,234 <gets+0x56>
    cc = read(0, &c, 1);
 208:	4605                	li	a2,1
 20a:	faf40593          	addi	a1,s0,-81
 20e:	4501                	li	a0,0
 210:	00000097          	auipc	ra,0x0
 214:	19a080e7          	jalr	410(ra) # 3aa <read>
    if (cc < 1)
 218:	00a05e63          	blez	a0,234 <gets+0x56>
    buf[i++] = c;
 21c:	faf44783          	lbu	a5,-81(s0)
 220:	00f90023          	sb	a5,0(s2)
    if (c == '\n' || c == '\r')
 224:	01578763          	beq	a5,s5,232 <gets+0x54>
 228:	0905                	addi	s2,s2,1
 22a:	fd679be3          	bne	a5,s6,200 <gets+0x22>
  for (i = 0; i + 1 < max;)
 22e:	89a6                	mv	s3,s1
 230:	a011                	j	234 <gets+0x56>
 232:	89a6                	mv	s3,s1
      break;
  }
  buf[i] = '\0';
 234:	99de                	add	s3,s3,s7
 236:	00098023          	sb	zero,0(s3)
  return buf;
}
 23a:	855e                	mv	a0,s7
 23c:	60e6                	ld	ra,88(sp)
 23e:	6446                	ld	s0,80(sp)
 240:	64a6                	ld	s1,72(sp)
 242:	6906                	ld	s2,64(sp)
 244:	79e2                	ld	s3,56(sp)
 246:	7a42                	ld	s4,48(sp)
 248:	7aa2                	ld	s5,40(sp)
 24a:	7b02                	ld	s6,32(sp)
 24c:	6be2                	ld	s7,24(sp)
 24e:	6125                	addi	sp,sp,96
 250:	8082                	ret

0000000000000252 <stat>:

int stat(const char *n, struct stat *st)
{
 252:	1101                	addi	sp,sp,-32
 254:	ec06                	sd	ra,24(sp)
 256:	e822                	sd	s0,16(sp)
 258:	e426                	sd	s1,8(sp)
 25a:	e04a                	sd	s2,0(sp)
 25c:	1000                	addi	s0,sp,32
 25e:	892e                	mv	s2,a1
  int fd;
  int r;

  fd = open(n, O_RDONLY);
 260:	4581                	li	a1,0
 262:	00000097          	auipc	ra,0x0
 266:	170080e7          	jalr	368(ra) # 3d2 <open>
  if (fd < 0)
 26a:	02054563          	bltz	a0,294 <stat+0x42>
 26e:	84aa                	mv	s1,a0
    return -1;
  r = fstat(fd, st);
 270:	85ca                	mv	a1,s2
 272:	00000097          	auipc	ra,0x0
 276:	178080e7          	jalr	376(ra) # 3ea <fstat>
 27a:	892a                	mv	s2,a0
  close(fd);
 27c:	8526                	mv	a0,s1
 27e:	00000097          	auipc	ra,0x0
 282:	13c080e7          	jalr	316(ra) # 3ba <close>
  return r;
}
 286:	854a                	mv	a0,s2
 288:	60e2                	ld	ra,24(sp)
 28a:	6442                	ld	s0,16(sp)
 28c:	64a2                	ld	s1,8(sp)
 28e:	6902                	ld	s2,0(sp)
 290:	6105                	addi	sp,sp,32
 292:	8082                	ret
    return -1;
 294:	597d                	li	s2,-1
 296:	bfc5                	j	286 <stat+0x34>

0000000000000298 <atoi>:

int atoi(const char *s)
{
 298:	1141                	addi	sp,sp,-16
 29a:	e422                	sd	s0,8(sp)
 29c:	0800                	addi	s0,sp,16
  int n;

  n = 0;
  while ('0' <= *s && *s <= '9')
 29e:	00054683          	lbu	a3,0(a0)
 2a2:	fd06879b          	addiw	a5,a3,-48
 2a6:	0ff7f793          	zext.b	a5,a5
 2aa:	4625                	li	a2,9
 2ac:	02f66863          	bltu	a2,a5,2dc <atoi+0x44>
 2b0:	872a                	mv	a4,a0
  n = 0;
 2b2:	4501                	li	a0,0
    n = n * 10 + *s++ - '0';
 2b4:	0705                	addi	a4,a4,1
 2b6:	0025179b          	slliw	a5,a0,0x2
 2ba:	9fa9                	addw	a5,a5,a0
 2bc:	0017979b          	slliw	a5,a5,0x1
 2c0:	9fb5                	addw	a5,a5,a3
 2c2:	fd07851b          	addiw	a0,a5,-48
  while ('0' <= *s && *s <= '9')
 2c6:	00074683          	lbu	a3,0(a4)
 2ca:	fd06879b          	addiw	a5,a3,-48
 2ce:	0ff7f793          	zext.b	a5,a5
 2d2:	fef671e3          	bgeu	a2,a5,2b4 <atoi+0x1c>
  return n;
}
 2d6:	6422                	ld	s0,8(sp)
 2d8:	0141                	addi	sp,sp,16
 2da:	8082                	ret
  n = 0;
 2dc:	4501                	li	a0,0
 2de:	bfe5                	j	2d6 <atoi+0x3e>

00000000000002e0 <memmove>:

void *
memmove(void *vdst, const void *vsrc, int n)
{
 2e0:	1141                	addi	sp,sp,-16
 2e2:	e422                	sd	s0,8(sp)
 2e4:	0800                	addi	s0,sp,16
  char *dst;
  const char *src;

  dst = vdst;
  src = vsrc;
  if (src > dst)
 2e6:	02b57463          	bgeu	a0,a1,30e <memmove+0x2e>
  {
    while (n-- > 0)
 2ea:	00c05f63          	blez	a2,308 <memmove+0x28>
 2ee:	1602                	slli	a2,a2,0x20
 2f0:	9201                	srli	a2,a2,0x20
 2f2:	00c507b3          	add	a5,a0,a2
  dst = vdst;
 2f6:	872a                	mv	a4,a0
      *dst++ = *src++;
 2f8:	0585                	addi	a1,a1,1
 2fa:	0705                	addi	a4,a4,1
 2fc:	fff5c683          	lbu	a3,-1(a1)
 300:	fed70fa3          	sb	a3,-1(a4)
    while (n-- > 0)
 304:	fee79ae3          	bne	a5,a4,2f8 <memmove+0x18>
    src += n;
    while (n-- > 0)
      *--dst = *--src;
  }
  return vdst;
}
 308:	6422                	ld	s0,8(sp)
 30a:	0141                	addi	sp,sp,16
 30c:	8082                	ret
    dst += n;
 30e:	00c50733          	add	a4,a0,a2
    src += n;
 312:	95b2                	add	a1,a1,a2
    while (n-- > 0)
 314:	fec05ae3          	blez	a2,308 <memmove+0x28>
 318:	fff6079b          	addiw	a5,a2,-1
 31c:	1782                	slli	a5,a5,0x20
 31e:	9381                	srli	a5,a5,0x20
 320:	fff7c793          	not	a5,a5
 324:	97ba                	add	a5,a5,a4
      *--dst = *--src;
 326:	15fd                	addi	a1,a1,-1
 328:	177d                	addi	a4,a4,-1
 32a:	0005c683          	lbu	a3,0(a1)
 32e:	00d70023          	sb	a3,0(a4)
    while (n-- > 0)
 332:	fee79ae3          	bne	a5,a4,326 <memmove+0x46>
 336:	bfc9                	j	308 <memmove+0x28>

0000000000000338 <memcmp>:

int memcmp(const void *s1, const void *s2, uint n)
{
 338:	1141                	addi	sp,sp,-16
 33a:	e422                	sd	s0,8(sp)
 33c:	0800                	addi	s0,sp,16
  const char *p1 = s1, *p2 = s2;
  while (n-- > 0)
 33e:	ca05                	beqz	a2,36e <memcmp+0x36>
 340:	fff6069b          	addiw	a3,a2,-1
 344:	1682                	slli	a3,a3,0x20
 346:	9281                	srli	a3,a3,0x20
 348:	0685                	addi	a3,a3,1
 34a:	96aa                	add	a3,a3,a0
  {
    if (*p1 != *p2)
 34c:	00054783          	lbu	a5,0(a0)
 350:	0005c703          	lbu	a4,0(a1)
 354:	00e79863          	bne	a5,a4,364 <memcmp+0x2c>
    {
      return *p1 - *p2;
    }
    p1++;
 358:	0505                	addi	a0,a0,1
    p2++;
 35a:	0585                	addi	a1,a1,1
  while (n-- > 0)
 35c:	fed518e3          	bne	a0,a3,34c <memcmp+0x14>
  }
  return 0;
 360:	4501                	li	a0,0
 362:	a019                	j	368 <memcmp+0x30>
      return *p1 - *p2;
 364:	40e7853b          	subw	a0,a5,a4
}
 368:	6422                	ld	s0,8(sp)
 36a:	0141                	addi	sp,sp,16
 36c:	8082                	ret
  return 0;
 36e:	4501                	li	a0,0
 370:	bfe5                	j	368 <memcmp+0x30>

0000000000000372 <memcpy>:

void *
memcpy(void *dst, const void *src, uint n)
{
 372:	1141                	addi	sp,sp,-16
 374:	e406                	sd	ra,8(sp)
 376:	e022                	sd	s0,0(sp)
 378:	0800                	addi	s0,sp,16
  return memmove(dst, src, n);
 37a:	00000097          	auipc	ra,0x0
 37e:	f66080e7          	jalr	-154(ra) # 2e0 <memmove>
}
 382:	60a2                	ld	ra,8(sp)
 384:	6402                	ld	s0,0(sp)
 386:	0141                	addi	sp,sp,16
 388:	8082                	ret

000000000000038a <fork>:
# generated by usys.pl - do not edit
#include "kernel/syscall.h"
.global fork
fork:
 li a7, SYS_fork
 38a:	4885                	li	a7,1
 ecall
 38c:	00000073          	ecall
 ret
 390:	8082                	ret

0000000000000392 <exit>:
.global exit
exit:
 li a7, SYS_exit
 392:	4889                	li	a7,2
 ecall
 394:	00000073          	ecall
 ret
 398:	8082                	ret

000000000000039a <wait>:
.global wait
wait:
 li a7, SYS_wait
 39a:	488d                	li	a7,3
 ecall
 39c:	00000073          	ecall
 ret
 3a0:	8082                	ret

00000000000003a2 <pipe>:
.global pipe
pipe:
 li a7, SYS_pipe
 3a2:	4891                	li	a7,4
 ecall
 3a4:	00000073          	ecall
 ret
 3a8:	8082                	ret

00000000000003aa <read>:
.global read
read:
 li a7, SYS_read
 3aa:	4895                	li	a7,5
 ecall
 3ac:	00000073          	ecall
 ret
 3b0:	8082                	ret

00000000000003b2 <write>:
.global write
write:
 li a7, SYS_write
 3b2:	48c1                	li	a7,16
 ecall
 3b4:	00000073          	ecall
 ret
 3b8:	8082                	ret

00000000000003ba <close>:
.global close
close:
 li a7, SYS_close
 3ba:	48d5                	li	a7,21
 ecall
 3bc:	00000073          	ecall
 ret
 3c0:	8082                	ret

00000000000003c2 <kill>:
.global kill
kill:
 li a7, SYS_kill
 3c2:	4899                	li	a7,6
 ecall
 3c4:	00000073          	ecall
 ret
 3c8:	8082                	ret

00000000000003ca <exec>:
.global exec
exec:
 li a7, SYS_exec
 3ca:	489d                	li	a7,7
 ecall
 3cc:	00000073          	ecall
 ret
 3d0:	8082                	ret

00000000000003d2 <open>:
.global open
open:
 li a7, SYS_open
 3d2:	48bd                	li	a7,15
 ecall
 3d4:	00000073          	ecall
 ret
 3d8:	8082                	ret

00000000000003da <mknod>:
.global mknod
mknod:
 li a7, SYS_mknod
 3da:	48c5                	li	a7,17
 ecall
 3dc:	00000073          	ecall
 ret
 3e0:	8082                	ret

00000000000003e2 <unlink>:
.global unlink
unlink:
 li a7, SYS_unlink
 3e2:	48c9                	li	a7,18
 ecall
 3e4:	00000073          	ecall
 ret
 3e8:	8082                	ret

00000000000003ea <fstat>:
.global fstat
fstat:
 li a7, SYS_fstat
 3ea:	48a1                	li	a7,8
 ecall
 3ec:	00000073          	ecall
 ret
 3f0:	8082                	ret

00000000000003f2 <link>:
.global link
link:
 li a7, SYS_link
 3f2:	48cd                	li	a7,19
 ecall
 3f4:	00000073          	ecall
 ret
 3f8:	8082                	ret

00000000000003fa <mkdir>:
.global mkdir
mkdir:
 li a7, SYS_mkdir
 3fa:	48d1                	li	a7,20
 ecall
 3fc:	00000073          	ecall
 ret
 400:	8082                	ret

0000000000000402 <chdir>:
.global chdir
chdir:
 li a7, SYS_chdir
 402:	48a5                	li	a7,9
 ecall
 404:	00000073          	ecall
 ret
 408:	8082                	ret

000000000000040a <dup>:
.global dup
dup:
 li a7, SYS_dup
 40a:	48a9                	li	a7,10
 ecall
 40c:	00000073          	ecall
 ret
 410:	8082                	ret

0000000000000412 <getpid>:
.global getpid
getpid:
 li a7, SYS_getpid
 412:	48ad                	li	a7,11
 ecall
 414:	00000073          	ecall
 ret
 418:	8082                	ret

000000000000041a <sbrk>:
.global sbrk
sbrk:
 li a7, SYS_sbrk
 41a:	48b1                	li	a7,12
 ecall
 41c:	00000073          	ecall
 ret
 420:	8082                	ret

0000000000000422 <sleep>:
.global sleep
sleep:
 li a7, SYS_sleep
 422:	48b5                	li	a7,13
 ecall
 424:	00000073          	ecall
 ret
 428:	8082                	ret

000000000000042a <uptime>:
.global uptime
uptime:
 li a7, SYS_uptime
 42a:	48b9                	li	a7,14
 ecall
 42c:	00000073          	ecall
 ret
 430:	8082                	ret

0000000000000432 <trace>:
.global trace
trace:
 li a7, SYS_trace
 432:	48d9                	li	a7,22
 ecall
 434:	00000073          	ecall
 ret
 438:	8082                	ret

000000000000043a <settickets>:
.global settickets
settickets:
 li a7, SYS_settickets
 43a:	48dd                	li	a7,23
 ecall
 43c:	00000073          	ecall
 ret
 440:	8082                	ret

0000000000000442 <sigreturn>:
.global sigreturn
sigreturn:
 li a7, SYS_sigreturn
 442:	48e5                	li	a7,25
 ecall
 444:	00000073          	ecall
 ret
 448:	8082                	ret

000000000000044a <sigalarm>:
.global sigalarm
sigalarm:
 li a7, SYS_sigalarm
 44a:	48e1                	li	a7,24
 ecall
 44c:	00000073          	ecall
 ret
 450:	8082                	ret

0000000000000452 <waitx>:
.global waitx
waitx:
 li a7, SYS_waitx
 452:	48e9                	li	a7,26
 ecall
 454:	00000073          	ecall
 ret
 458:	8082                	ret

000000000000045a <setpriority>:
.global setpriority
setpriority:
 li a7, SYS_setpriority
 45a:	48ed                	li	a7,27
 ecall
 45c:	00000073          	ecall
 ret
 460:	8082                	ret

0000000000000462 <putc>:

static char digits[] = "0123456789ABCDEF";

static void
putc(int fd, char c)
{
 462:	1101                	addi	sp,sp,-32
 464:	ec06                	sd	ra,24(sp)
 466:	e822                	sd	s0,16(sp)
 468:	1000                	addi	s0,sp,32
 46a:	feb407a3          	sb	a1,-17(s0)
  write(fd, &c, 1);
 46e:	4605                	li	a2,1
 470:	fef40593          	addi	a1,s0,-17
 474:	00000097          	auipc	ra,0x0
 478:	f3e080e7          	jalr	-194(ra) # 3b2 <write>
}
 47c:	60e2                	ld	ra,24(sp)
 47e:	6442                	ld	s0,16(sp)
 480:	6105                	addi	sp,sp,32
 482:	8082                	ret

0000000000000484 <printint>:

static void
printint(int fd, int xx, int base, int sgn)
{
 484:	7139                	addi	sp,sp,-64
 486:	fc06                	sd	ra,56(sp)
 488:	f822                	sd	s0,48(sp)
 48a:	f426                	sd	s1,40(sp)
 48c:	f04a                	sd	s2,32(sp)
 48e:	ec4e                	sd	s3,24(sp)
 490:	0080                	addi	s0,sp,64
 492:	84aa                	mv	s1,a0
  char buf[16];
  int i, neg;
  uint x;

  neg = 0;
  if (sgn && xx < 0)
 494:	c299                	beqz	a3,49a <printint+0x16>
 496:	0805c963          	bltz	a1,528 <printint+0xa4>
    neg = 1;
    x = -xx;
  }
  else
  {
    x = xx;
 49a:	2581                	sext.w	a1,a1
  neg = 0;
 49c:	4881                	li	a7,0
 49e:	fc040693          	addi	a3,s0,-64
  }

  i = 0;
 4a2:	4701                	li	a4,0
  do
  {
    buf[i++] = digits[x % base];
 4a4:	2601                	sext.w	a2,a2
 4a6:	00000517          	auipc	a0,0x0
 4aa:	4da50513          	addi	a0,a0,1242 # 980 <digits>
 4ae:	883a                	mv	a6,a4
 4b0:	2705                	addiw	a4,a4,1
 4b2:	02c5f7bb          	remuw	a5,a1,a2
 4b6:	1782                	slli	a5,a5,0x20
 4b8:	9381                	srli	a5,a5,0x20
 4ba:	97aa                	add	a5,a5,a0
 4bc:	0007c783          	lbu	a5,0(a5)
 4c0:	00f68023          	sb	a5,0(a3)
  } while ((x /= base) != 0);
 4c4:	0005879b          	sext.w	a5,a1
 4c8:	02c5d5bb          	divuw	a1,a1,a2
 4cc:	0685                	addi	a3,a3,1
 4ce:	fec7f0e3          	bgeu	a5,a2,4ae <printint+0x2a>
  if (neg)
 4d2:	00088c63          	beqz	a7,4ea <printint+0x66>
    buf[i++] = '-';
 4d6:	fd070793          	addi	a5,a4,-48
 4da:	00878733          	add	a4,a5,s0
 4de:	02d00793          	li	a5,45
 4e2:	fef70823          	sb	a5,-16(a4)
 4e6:	0028071b          	addiw	a4,a6,2

  while (--i >= 0)
 4ea:	02e05863          	blez	a4,51a <printint+0x96>
 4ee:	fc040793          	addi	a5,s0,-64
 4f2:	00e78933          	add	s2,a5,a4
 4f6:	fff78993          	addi	s3,a5,-1
 4fa:	99ba                	add	s3,s3,a4
 4fc:	377d                	addiw	a4,a4,-1
 4fe:	1702                	slli	a4,a4,0x20
 500:	9301                	srli	a4,a4,0x20
 502:	40e989b3          	sub	s3,s3,a4
    putc(fd, buf[i]);
 506:	fff94583          	lbu	a1,-1(s2)
 50a:	8526                	mv	a0,s1
 50c:	00000097          	auipc	ra,0x0
 510:	f56080e7          	jalr	-170(ra) # 462 <putc>
  while (--i >= 0)
 514:	197d                	addi	s2,s2,-1
 516:	ff3918e3          	bne	s2,s3,506 <printint+0x82>
}
 51a:	70e2                	ld	ra,56(sp)
 51c:	7442                	ld	s0,48(sp)
 51e:	74a2                	ld	s1,40(sp)
 520:	7902                	ld	s2,32(sp)
 522:	69e2                	ld	s3,24(sp)
 524:	6121                	addi	sp,sp,64
 526:	8082                	ret
    x = -xx;
 528:	40b005bb          	negw	a1,a1
    neg = 1;
 52c:	4885                	li	a7,1
    x = -xx;
 52e:	bf85                	j	49e <printint+0x1a>

0000000000000530 <vprintf>:
    putc(fd, digits[x >> (sizeof(uint64) * 8 - 4)]);
}

// Print to the given fd. Only understands %d, %x, %p, %s.
void vprintf(int fd, const char *fmt, va_list ap)
{
 530:	7119                	addi	sp,sp,-128
 532:	fc86                	sd	ra,120(sp)
 534:	f8a2                	sd	s0,112(sp)
 536:	f4a6                	sd	s1,104(sp)
 538:	f0ca                	sd	s2,96(sp)
 53a:	ecce                	sd	s3,88(sp)
 53c:	e8d2                	sd	s4,80(sp)
 53e:	e4d6                	sd	s5,72(sp)
 540:	e0da                	sd	s6,64(sp)
 542:	fc5e                	sd	s7,56(sp)
 544:	f862                	sd	s8,48(sp)
 546:	f466                	sd	s9,40(sp)
 548:	f06a                	sd	s10,32(sp)
 54a:	ec6e                	sd	s11,24(sp)
 54c:	0100                	addi	s0,sp,128
  char *s;
  int c, i, state;

  state = 0;
  for (i = 0; fmt[i]; i++)
 54e:	0005c903          	lbu	s2,0(a1)
 552:	18090f63          	beqz	s2,6f0 <vprintf+0x1c0>
 556:	8aaa                	mv	s5,a0
 558:	8b32                	mv	s6,a2
 55a:	00158493          	addi	s1,a1,1
  state = 0;
 55e:	4981                	li	s3,0
      else
      {
        putc(fd, c);
      }
    }
    else if (state == '%')
 560:	02500a13          	li	s4,37
 564:	4c55                	li	s8,21
 566:	00000c97          	auipc	s9,0x0
 56a:	3c2c8c93          	addi	s9,s9,962 # 928 <malloc+0x134>
      else if (c == 's')
      {
        s = va_arg(ap, char *);
        if (s == 0)
          s = "(null)";
        while (*s != 0)
 56e:	02800d93          	li	s11,40
  putc(fd, 'x');
 572:	4d41                	li	s10,16
    putc(fd, digits[x >> (sizeof(uint64) * 8 - 4)]);
 574:	00000b97          	auipc	s7,0x0
 578:	40cb8b93          	addi	s7,s7,1036 # 980 <digits>
 57c:	a839                	j	59a <vprintf+0x6a>
        putc(fd, c);
 57e:	85ca                	mv	a1,s2
 580:	8556                	mv	a0,s5
 582:	00000097          	auipc	ra,0x0
 586:	ee0080e7          	jalr	-288(ra) # 462 <putc>
 58a:	a019                	j	590 <vprintf+0x60>
    else if (state == '%')
 58c:	01498d63          	beq	s3,s4,5a6 <vprintf+0x76>
  for (i = 0; fmt[i]; i++)
 590:	0485                	addi	s1,s1,1
 592:	fff4c903          	lbu	s2,-1(s1)
 596:	14090d63          	beqz	s2,6f0 <vprintf+0x1c0>
    if (state == 0)
 59a:	fe0999e3          	bnez	s3,58c <vprintf+0x5c>
      if (c == '%')
 59e:	ff4910e3          	bne	s2,s4,57e <vprintf+0x4e>
        state = '%';
 5a2:	89d2                	mv	s3,s4
 5a4:	b7f5                	j	590 <vprintf+0x60>
      if (c == 'd')
 5a6:	11490c63          	beq	s2,s4,6be <vprintf+0x18e>
 5aa:	f9d9079b          	addiw	a5,s2,-99
 5ae:	0ff7f793          	zext.b	a5,a5
 5b2:	10fc6e63          	bltu	s8,a5,6ce <vprintf+0x19e>
 5b6:	f9d9079b          	addiw	a5,s2,-99
 5ba:	0ff7f713          	zext.b	a4,a5
 5be:	10ec6863          	bltu	s8,a4,6ce <vprintf+0x19e>
 5c2:	00271793          	slli	a5,a4,0x2
 5c6:	97e6                	add	a5,a5,s9
 5c8:	439c                	lw	a5,0(a5)
 5ca:	97e6                	add	a5,a5,s9
 5cc:	8782                	jr	a5
        printint(fd, va_arg(ap, int), 10, 1);
 5ce:	008b0913          	addi	s2,s6,8
 5d2:	4685                	li	a3,1
 5d4:	4629                	li	a2,10
 5d6:	000b2583          	lw	a1,0(s6)
 5da:	8556                	mv	a0,s5
 5dc:	00000097          	auipc	ra,0x0
 5e0:	ea8080e7          	jalr	-344(ra) # 484 <printint>
 5e4:	8b4a                	mv	s6,s2
      {
        // Unknown % sequence.  Print it to draw attention.
        putc(fd, '%');
        putc(fd, c);
      }
      state = 0;
 5e6:	4981                	li	s3,0
 5e8:	b765                	j	590 <vprintf+0x60>
        printint(fd, va_arg(ap, uint64), 10, 0);
 5ea:	008b0913          	addi	s2,s6,8
 5ee:	4681                	li	a3,0
 5f0:	4629                	li	a2,10
 5f2:	000b2583          	lw	a1,0(s6)
 5f6:	8556                	mv	a0,s5
 5f8:	00000097          	auipc	ra,0x0
 5fc:	e8c080e7          	jalr	-372(ra) # 484 <printint>
 600:	8b4a                	mv	s6,s2
      state = 0;
 602:	4981                	li	s3,0
 604:	b771                	j	590 <vprintf+0x60>
        printint(fd, va_arg(ap, int), 16, 0);
 606:	008b0913          	addi	s2,s6,8
 60a:	4681                	li	a3,0
 60c:	866a                	mv	a2,s10
 60e:	000b2583          	lw	a1,0(s6)
 612:	8556                	mv	a0,s5
 614:	00000097          	auipc	ra,0x0
 618:	e70080e7          	jalr	-400(ra) # 484 <printint>
 61c:	8b4a                	mv	s6,s2
      state = 0;
 61e:	4981                	li	s3,0
 620:	bf85                	j	590 <vprintf+0x60>
        printptr(fd, va_arg(ap, uint64));
 622:	008b0793          	addi	a5,s6,8
 626:	f8f43423          	sd	a5,-120(s0)
 62a:	000b3983          	ld	s3,0(s6)
  putc(fd, '0');
 62e:	03000593          	li	a1,48
 632:	8556                	mv	a0,s5
 634:	00000097          	auipc	ra,0x0
 638:	e2e080e7          	jalr	-466(ra) # 462 <putc>
  putc(fd, 'x');
 63c:	07800593          	li	a1,120
 640:	8556                	mv	a0,s5
 642:	00000097          	auipc	ra,0x0
 646:	e20080e7          	jalr	-480(ra) # 462 <putc>
 64a:	896a                	mv	s2,s10
    putc(fd, digits[x >> (sizeof(uint64) * 8 - 4)]);
 64c:	03c9d793          	srli	a5,s3,0x3c
 650:	97de                	add	a5,a5,s7
 652:	0007c583          	lbu	a1,0(a5)
 656:	8556                	mv	a0,s5
 658:	00000097          	auipc	ra,0x0
 65c:	e0a080e7          	jalr	-502(ra) # 462 <putc>
  for (i = 0; i < (sizeof(uint64) * 2); i++, x <<= 4)
 660:	0992                	slli	s3,s3,0x4
 662:	397d                	addiw	s2,s2,-1
 664:	fe0914e3          	bnez	s2,64c <vprintf+0x11c>
        printptr(fd, va_arg(ap, uint64));
 668:	f8843b03          	ld	s6,-120(s0)
      state = 0;
 66c:	4981                	li	s3,0
 66e:	b70d                	j	590 <vprintf+0x60>
        s = va_arg(ap, char *);
 670:	008b0913          	addi	s2,s6,8
 674:	000b3983          	ld	s3,0(s6)
        if (s == 0)
 678:	02098163          	beqz	s3,69a <vprintf+0x16a>
        while (*s != 0)
 67c:	0009c583          	lbu	a1,0(s3)
 680:	c5ad                	beqz	a1,6ea <vprintf+0x1ba>
          putc(fd, *s);
 682:	8556                	mv	a0,s5
 684:	00000097          	auipc	ra,0x0
 688:	dde080e7          	jalr	-546(ra) # 462 <putc>
          s++;
 68c:	0985                	addi	s3,s3,1
        while (*s != 0)
 68e:	0009c583          	lbu	a1,0(s3)
 692:	f9e5                	bnez	a1,682 <vprintf+0x152>
        s = va_arg(ap, char *);
 694:	8b4a                	mv	s6,s2
      state = 0;
 696:	4981                	li	s3,0
 698:	bde5                	j	590 <vprintf+0x60>
          s = "(null)";
 69a:	00000997          	auipc	s3,0x0
 69e:	28698993          	addi	s3,s3,646 # 920 <malloc+0x12c>
        while (*s != 0)
 6a2:	85ee                	mv	a1,s11
 6a4:	bff9                	j	682 <vprintf+0x152>
        putc(fd, va_arg(ap, uint));
 6a6:	008b0913          	addi	s2,s6,8
 6aa:	000b4583          	lbu	a1,0(s6)
 6ae:	8556                	mv	a0,s5
 6b0:	00000097          	auipc	ra,0x0
 6b4:	db2080e7          	jalr	-590(ra) # 462 <putc>
 6b8:	8b4a                	mv	s6,s2
      state = 0;
 6ba:	4981                	li	s3,0
 6bc:	bdd1                	j	590 <vprintf+0x60>
        putc(fd, c);
 6be:	85d2                	mv	a1,s4
 6c0:	8556                	mv	a0,s5
 6c2:	00000097          	auipc	ra,0x0
 6c6:	da0080e7          	jalr	-608(ra) # 462 <putc>
      state = 0;
 6ca:	4981                	li	s3,0
 6cc:	b5d1                	j	590 <vprintf+0x60>
        putc(fd, '%');
 6ce:	85d2                	mv	a1,s4
 6d0:	8556                	mv	a0,s5
 6d2:	00000097          	auipc	ra,0x0
 6d6:	d90080e7          	jalr	-624(ra) # 462 <putc>
        putc(fd, c);
 6da:	85ca                	mv	a1,s2
 6dc:	8556                	mv	a0,s5
 6de:	00000097          	auipc	ra,0x0
 6e2:	d84080e7          	jalr	-636(ra) # 462 <putc>
      state = 0;
 6e6:	4981                	li	s3,0
 6e8:	b565                	j	590 <vprintf+0x60>
        s = va_arg(ap, char *);
 6ea:	8b4a                	mv	s6,s2
      state = 0;
 6ec:	4981                	li	s3,0
 6ee:	b54d                	j	590 <vprintf+0x60>
    }
  }
}
 6f0:	70e6                	ld	ra,120(sp)
 6f2:	7446                	ld	s0,112(sp)
 6f4:	74a6                	ld	s1,104(sp)
 6f6:	7906                	ld	s2,96(sp)
 6f8:	69e6                	ld	s3,88(sp)
 6fa:	6a46                	ld	s4,80(sp)
 6fc:	6aa6                	ld	s5,72(sp)
 6fe:	6b06                	ld	s6,64(sp)
 700:	7be2                	ld	s7,56(sp)
 702:	7c42                	ld	s8,48(sp)
 704:	7ca2                	ld	s9,40(sp)
 706:	7d02                	ld	s10,32(sp)
 708:	6de2                	ld	s11,24(sp)
 70a:	6109                	addi	sp,sp,128
 70c:	8082                	ret

000000000000070e <fprintf>:

void fprintf(int fd, const char *fmt, ...)
{
 70e:	715d                	addi	sp,sp,-80
 710:	ec06                	sd	ra,24(sp)
 712:	e822                	sd	s0,16(sp)
 714:	1000                	addi	s0,sp,32
 716:	e010                	sd	a2,0(s0)
 718:	e414                	sd	a3,8(s0)
 71a:	e818                	sd	a4,16(s0)
 71c:	ec1c                	sd	a5,24(s0)
 71e:	03043023          	sd	a6,32(s0)
 722:	03143423          	sd	a7,40(s0)
  va_list ap;

  va_start(ap, fmt);
 726:	fe843423          	sd	s0,-24(s0)
  vprintf(fd, fmt, ap);
 72a:	8622                	mv	a2,s0
 72c:	00000097          	auipc	ra,0x0
 730:	e04080e7          	jalr	-508(ra) # 530 <vprintf>
}
 734:	60e2                	ld	ra,24(sp)
 736:	6442                	ld	s0,16(sp)
 738:	6161                	addi	sp,sp,80
 73a:	8082                	ret

000000000000073c <printf>:

void printf(const char *fmt, ...)
{
 73c:	711d                	addi	sp,sp,-96
 73e:	ec06                	sd	ra,24(sp)
 740:	e822                	sd	s0,16(sp)
 742:	1000                	addi	s0,sp,32
 744:	e40c                	sd	a1,8(s0)
 746:	e810                	sd	a2,16(s0)
 748:	ec14                	sd	a3,24(s0)
 74a:	f018                	sd	a4,32(s0)
 74c:	f41c                	sd	a5,40(s0)
 74e:	03043823          	sd	a6,48(s0)
 752:	03143c23          	sd	a7,56(s0)
  va_list ap;

  va_start(ap, fmt);
 756:	00840613          	addi	a2,s0,8
 75a:	fec43423          	sd	a2,-24(s0)
  vprintf(1, fmt, ap);
 75e:	85aa                	mv	a1,a0
 760:	4505                	li	a0,1
 762:	00000097          	auipc	ra,0x0
 766:	dce080e7          	jalr	-562(ra) # 530 <vprintf>
}
 76a:	60e2                	ld	ra,24(sp)
 76c:	6442                	ld	s0,16(sp)
 76e:	6125                	addi	sp,sp,96
 770:	8082                	ret

0000000000000772 <free>:

static Header base;
static Header *freep;

void free(void *ap)
{
 772:	1141                	addi	sp,sp,-16
 774:	e422                	sd	s0,8(sp)
 776:	0800                	addi	s0,sp,16
  Header *bp, *p;

  bp = (Header *)ap - 1;
 778:	ff050693          	addi	a3,a0,-16
  for (p = freep; !(bp > p && bp < p->s.ptr); p = p->s.ptr)
 77c:	00001797          	auipc	a5,0x1
 780:	8847b783          	ld	a5,-1916(a5) # 1000 <freep>
 784:	a02d                	j	7ae <free+0x3c>
    if (p >= p->s.ptr && (bp > p || bp < p->s.ptr))
      break;
  if (bp + bp->s.size == p->s.ptr)
  {
    bp->s.size += p->s.ptr->s.size;
 786:	4618                	lw	a4,8(a2)
 788:	9f2d                	addw	a4,a4,a1
 78a:	fee52c23          	sw	a4,-8(a0)
    bp->s.ptr = p->s.ptr->s.ptr;
 78e:	6398                	ld	a4,0(a5)
 790:	6310                	ld	a2,0(a4)
 792:	a83d                	j	7d0 <free+0x5e>
  }
  else
    bp->s.ptr = p->s.ptr;
  if (p + p->s.size == bp)
  {
    p->s.size += bp->s.size;
 794:	ff852703          	lw	a4,-8(a0)
 798:	9f31                	addw	a4,a4,a2
 79a:	c798                	sw	a4,8(a5)
    p->s.ptr = bp->s.ptr;
 79c:	ff053683          	ld	a3,-16(a0)
 7a0:	a091                	j	7e4 <free+0x72>
    if (p >= p->s.ptr && (bp > p || bp < p->s.ptr))
 7a2:	6398                	ld	a4,0(a5)
 7a4:	00e7e463          	bltu	a5,a4,7ac <free+0x3a>
 7a8:	00e6ea63          	bltu	a3,a4,7bc <free+0x4a>
{
 7ac:	87ba                	mv	a5,a4
  for (p = freep; !(bp > p && bp < p->s.ptr); p = p->s.ptr)
 7ae:	fed7fae3          	bgeu	a5,a3,7a2 <free+0x30>
 7b2:	6398                	ld	a4,0(a5)
 7b4:	00e6e463          	bltu	a3,a4,7bc <free+0x4a>
    if (p >= p->s.ptr && (bp > p || bp < p->s.ptr))
 7b8:	fee7eae3          	bltu	a5,a4,7ac <free+0x3a>
  if (bp + bp->s.size == p->s.ptr)
 7bc:	ff852583          	lw	a1,-8(a0)
 7c0:	6390                	ld	a2,0(a5)
 7c2:	02059813          	slli	a6,a1,0x20
 7c6:	01c85713          	srli	a4,a6,0x1c
 7ca:	9736                	add	a4,a4,a3
 7cc:	fae60de3          	beq	a2,a4,786 <free+0x14>
    bp->s.ptr = p->s.ptr->s.ptr;
 7d0:	fec53823          	sd	a2,-16(a0)
  if (p + p->s.size == bp)
 7d4:	4790                	lw	a2,8(a5)
 7d6:	02061593          	slli	a1,a2,0x20
 7da:	01c5d713          	srli	a4,a1,0x1c
 7de:	973e                	add	a4,a4,a5
 7e0:	fae68ae3          	beq	a3,a4,794 <free+0x22>
    p->s.ptr = bp->s.ptr;
 7e4:	e394                	sd	a3,0(a5)
  }
  else
    p->s.ptr = bp;
  freep = p;
 7e6:	00001717          	auipc	a4,0x1
 7ea:	80f73d23          	sd	a5,-2022(a4) # 1000 <freep>
}
 7ee:	6422                	ld	s0,8(sp)
 7f0:	0141                	addi	sp,sp,16
 7f2:	8082                	ret

00000000000007f4 <malloc>:
  return freep;
}

void *
malloc(uint nbytes)
{
 7f4:	7139                	addi	sp,sp,-64
 7f6:	fc06                	sd	ra,56(sp)
 7f8:	f822                	sd	s0,48(sp)
 7fa:	f426                	sd	s1,40(sp)
 7fc:	f04a                	sd	s2,32(sp)
 7fe:	ec4e                	sd	s3,24(sp)
 800:	e852                	sd	s4,16(sp)
 802:	e456                	sd	s5,8(sp)
 804:	e05a                	sd	s6,0(sp)
 806:	0080                	addi	s0,sp,64
  Header *p, *prevp;
  uint nunits;

  nunits = (nbytes + sizeof(Header) - 1) / sizeof(Header) + 1;
 808:	02051493          	slli	s1,a0,0x20
 80c:	9081                	srli	s1,s1,0x20
 80e:	04bd                	addi	s1,s1,15
 810:	8091                	srli	s1,s1,0x4
 812:	0014899b          	addiw	s3,s1,1
 816:	0485                	addi	s1,s1,1
  if ((prevp = freep) == 0)
 818:	00000517          	auipc	a0,0x0
 81c:	7e853503          	ld	a0,2024(a0) # 1000 <freep>
 820:	c515                	beqz	a0,84c <malloc+0x58>
  {
    base.s.ptr = freep = prevp = &base;
    base.s.size = 0;
  }
  for (p = prevp->s.ptr;; prevp = p, p = p->s.ptr)
 822:	611c                	ld	a5,0(a0)
  {
    if (p->s.size >= nunits)
 824:	4798                	lw	a4,8(a5)
 826:	02977f63          	bgeu	a4,s1,864 <malloc+0x70>
 82a:	8a4e                	mv	s4,s3
 82c:	0009871b          	sext.w	a4,s3
 830:	6685                	lui	a3,0x1
 832:	00d77363          	bgeu	a4,a3,838 <malloc+0x44>
 836:	6a05                	lui	s4,0x1
 838:	000a0b1b          	sext.w	s6,s4
  p = sbrk(nu * sizeof(Header));
 83c:	004a1a1b          	slliw	s4,s4,0x4
        p->s.size = nunits;
      }
      freep = prevp;
      return (void *)(p + 1);
    }
    if (p == freep)
 840:	00000917          	auipc	s2,0x0
 844:	7c090913          	addi	s2,s2,1984 # 1000 <freep>
  if (p == (char *)-1)
 848:	5afd                	li	s5,-1
 84a:	a895                	j	8be <malloc+0xca>
    base.s.ptr = freep = prevp = &base;
 84c:	00000797          	auipc	a5,0x0
 850:	7c478793          	addi	a5,a5,1988 # 1010 <base>
 854:	00000717          	auipc	a4,0x0
 858:	7af73623          	sd	a5,1964(a4) # 1000 <freep>
 85c:	e39c                	sd	a5,0(a5)
    base.s.size = 0;
 85e:	0007a423          	sw	zero,8(a5)
    if (p->s.size >= nunits)
 862:	b7e1                	j	82a <malloc+0x36>
      if (p->s.size == nunits)
 864:	02e48c63          	beq	s1,a4,89c <malloc+0xa8>
        p->s.size -= nunits;
 868:	4137073b          	subw	a4,a4,s3
 86c:	c798                	sw	a4,8(a5)
        p += p->s.size;
 86e:	02071693          	slli	a3,a4,0x20
 872:	01c6d713          	srli	a4,a3,0x1c
 876:	97ba                	add	a5,a5,a4
        p->s.size = nunits;
 878:	0137a423          	sw	s3,8(a5)
      freep = prevp;
 87c:	00000717          	auipc	a4,0x0
 880:	78a73223          	sd	a0,1924(a4) # 1000 <freep>
      return (void *)(p + 1);
 884:	01078513          	addi	a0,a5,16
      if ((p = morecore(nunits)) == 0)
        return 0;
  }
}
 888:	70e2                	ld	ra,56(sp)
 88a:	7442                	ld	s0,48(sp)
 88c:	74a2                	ld	s1,40(sp)
 88e:	7902                	ld	s2,32(sp)
 890:	69e2                	ld	s3,24(sp)
 892:	6a42                	ld	s4,16(sp)
 894:	6aa2                	ld	s5,8(sp)
 896:	6b02                	ld	s6,0(sp)
 898:	6121                	addi	sp,sp,64
 89a:	8082                	ret
        prevp->s.ptr = p->s.ptr;
 89c:	6398                	ld	a4,0(a5)
 89e:	e118                	sd	a4,0(a0)
 8a0:	bff1                	j	87c <malloc+0x88>
  hp->s.size = nu;
 8a2:	01652423          	sw	s6,8(a0)
  free((void *)(hp + 1));
 8a6:	0541                	addi	a0,a0,16
 8a8:	00000097          	auipc	ra,0x0
 8ac:	eca080e7          	jalr	-310(ra) # 772 <free>
  return freep;
 8b0:	00093503          	ld	a0,0(s2)
      if ((p = morecore(nunits)) == 0)
 8b4:	d971                	beqz	a0,888 <malloc+0x94>
  for (p = prevp->s.ptr;; prevp = p, p = p->s.ptr)
 8b6:	611c                	ld	a5,0(a0)
    if (p->s.size >= nunits)
 8b8:	4798                	lw	a4,8(a5)
 8ba:	fa9775e3          	bgeu	a4,s1,864 <malloc+0x70>
    if (p == freep)
 8be:	00093703          	ld	a4,0(s2)
 8c2:	853e                	mv	a0,a5
 8c4:	fef719e3          	bne	a4,a5,8b6 <malloc+0xc2>
  p = sbrk(nu * sizeof(Header));
 8c8:	8552                	mv	a0,s4
 8ca:	00000097          	auipc	ra,0x0
 8ce:	b50080e7          	jalr	-1200(ra) # 41a <sbrk>
  if (p == (char *)-1)
 8d2:	fd5518e3          	bne	a0,s5,8a2 <malloc+0xae>
        return 0;
 8d6:	4501                	li	a0,0
 8d8:	bf45                	j	888 <malloc+0x94>
