
kernel/kernel:     file format elf64-littleriscv


Disassembly of section .text:

0000000080000000 <_entry>:
    80000000:	00009117          	auipc	sp,0x9
    80000004:	8b013103          	ld	sp,-1872(sp) # 800088b0 <_GLOBAL_OFFSET_TABLE_+0x8>
    80000008:	6505                	lui	a0,0x1
    8000000a:	f14025f3          	csrr	a1,mhartid
    8000000e:	0585                	addi	a1,a1,1
    80000010:	02b50533          	mul	a0,a0,a1
    80000014:	912a                	add	sp,sp,a0
    80000016:	076000ef          	jal	ra,8000008c <start>

000000008000001a <spin>:
    8000001a:	a001                	j	8000001a <spin>

000000008000001c <timerinit>:
// they will arrive in machine mode at
// at timervec in kernelvec.S,
// which turns them into software interrupts for
// devintr() in trap.c.
void timerinit()
{
    8000001c:	1141                	addi	sp,sp,-16
    8000001e:	e422                	sd	s0,8(sp)
    80000020:	0800                	addi	s0,sp,16
// which hart (core) is this?
static inline uint64
r_mhartid()
{
  uint64 x;
  asm volatile("csrr %0, mhartid"
    80000022:	f14027f3          	csrr	a5,mhartid
  // each CPU has a separate source of timer interrupts.
  int id = r_mhartid();
    80000026:	0007859b          	sext.w	a1,a5

  // ask the CLINT for a timer interrupt.
  int interval = 1000000; // cycles; about 1/10th second in qemu.
  *(uint64 *)CLINT_MTIMECMP(id) = *(uint64 *)CLINT_MTIME + interval;
    8000002a:	0037979b          	slliw	a5,a5,0x3
    8000002e:	02004737          	lui	a4,0x2004
    80000032:	97ba                	add	a5,a5,a4
    80000034:	0200c737          	lui	a4,0x200c
    80000038:	ff873703          	ld	a4,-8(a4) # 200bff8 <_entry-0x7dff4008>
    8000003c:	000f4637          	lui	a2,0xf4
    80000040:	24060613          	addi	a2,a2,576 # f4240 <_entry-0x7ff0bdc0>
    80000044:	9732                	add	a4,a4,a2
    80000046:	e398                	sd	a4,0(a5)

  // prepare information in scratch[] for timervec.
  // scratch[0..2] : space for timervec to save registers.
  // scratch[3] : address of CLINT MTIMECMP register.
  // scratch[4] : desired interval (in cycles) between timer interrupts.
  uint64 *scratch = &timer_scratch[id][0];
    80000048:	00259693          	slli	a3,a1,0x2
    8000004c:	96ae                	add	a3,a3,a1
    8000004e:	068e                	slli	a3,a3,0x3
    80000050:	00009717          	auipc	a4,0x9
    80000054:	8c070713          	addi	a4,a4,-1856 # 80008910 <timer_scratch>
    80000058:	9736                	add	a4,a4,a3
  scratch[3] = CLINT_MTIMECMP(id);
    8000005a:	ef1c                	sd	a5,24(a4)
  scratch[4] = interval;
    8000005c:	f310                	sd	a2,32(a4)
}

static inline void
w_mscratch(uint64 x)
{
  asm volatile("csrw mscratch, %0"
    8000005e:	34071073          	csrw	mscratch,a4
  asm volatile("csrw mtvec, %0"
    80000062:	00006797          	auipc	a5,0x6
    80000066:	ede78793          	addi	a5,a5,-290 # 80005f40 <timervec>
    8000006a:	30579073          	csrw	mtvec,a5
  asm volatile("csrr %0, mstatus"
    8000006e:	300027f3          	csrr	a5,mstatus

  // set the machine-mode trap handler.
  w_mtvec((uint64)timervec);

  // enable machine-mode interrupts.
  w_mstatus(r_mstatus() | MSTATUS_MIE);
    80000072:	0087e793          	ori	a5,a5,8
  asm volatile("csrw mstatus, %0"
    80000076:	30079073          	csrw	mstatus,a5
  asm volatile("csrr %0, mie"
    8000007a:	304027f3          	csrr	a5,mie

  // enable machine-mode timer interrupts.
  w_mie(r_mie() | MIE_MTIE);
    8000007e:	0807e793          	ori	a5,a5,128
  asm volatile("csrw mie, %0"
    80000082:	30479073          	csrw	mie,a5
}
    80000086:	6422                	ld	s0,8(sp)
    80000088:	0141                	addi	sp,sp,16
    8000008a:	8082                	ret

000000008000008c <start>:
{
    8000008c:	1141                	addi	sp,sp,-16
    8000008e:	e406                	sd	ra,8(sp)
    80000090:	e022                	sd	s0,0(sp)
    80000092:	0800                	addi	s0,sp,16
  asm volatile("csrr %0, mstatus"
    80000094:	300027f3          	csrr	a5,mstatus
  x &= ~MSTATUS_MPP_MASK;
    80000098:	7779                	lui	a4,0xffffe
    8000009a:	7ff70713          	addi	a4,a4,2047 # ffffffffffffe7ff <end+0xffffffff7ffdb057>
    8000009e:	8ff9                	and	a5,a5,a4
  x |= MSTATUS_MPP_S;
    800000a0:	6705                	lui	a4,0x1
    800000a2:	80070713          	addi	a4,a4,-2048 # 800 <_entry-0x7ffff800>
    800000a6:	8fd9                	or	a5,a5,a4
  asm volatile("csrw mstatus, %0"
    800000a8:	30079073          	csrw	mstatus,a5
  asm volatile("csrw mepc, %0"
    800000ac:	00001797          	auipc	a5,0x1
    800000b0:	dcc78793          	addi	a5,a5,-564 # 80000e78 <main>
    800000b4:	34179073          	csrw	mepc,a5
  asm volatile("csrw satp, %0"
    800000b8:	4781                	li	a5,0
    800000ba:	18079073          	csrw	satp,a5
  asm volatile("csrw medeleg, %0"
    800000be:	67c1                	lui	a5,0x10
    800000c0:	17fd                	addi	a5,a5,-1 # ffff <_entry-0x7fff0001>
    800000c2:	30279073          	csrw	medeleg,a5
  asm volatile("csrw mideleg, %0"
    800000c6:	30379073          	csrw	mideleg,a5
  asm volatile("csrr %0, sie"
    800000ca:	104027f3          	csrr	a5,sie
  w_sie(r_sie() | SIE_SEIE | SIE_STIE | SIE_SSIE);
    800000ce:	2227e793          	ori	a5,a5,546
  asm volatile("csrw sie, %0"
    800000d2:	10479073          	csrw	sie,a5
  asm volatile("csrw pmpaddr0, %0"
    800000d6:	57fd                	li	a5,-1
    800000d8:	83a9                	srli	a5,a5,0xa
    800000da:	3b079073          	csrw	pmpaddr0,a5
  asm volatile("csrw pmpcfg0, %0"
    800000de:	47bd                	li	a5,15
    800000e0:	3a079073          	csrw	pmpcfg0,a5
  timerinit();
    800000e4:	00000097          	auipc	ra,0x0
    800000e8:	f38080e7          	jalr	-200(ra) # 8000001c <timerinit>
  asm volatile("csrr %0, mhartid"
    800000ec:	f14027f3          	csrr	a5,mhartid
  w_tp(id);
    800000f0:	2781                	sext.w	a5,a5
}

static inline void
w_tp(uint64 x)
{
  asm volatile("mv tp, %0"
    800000f2:	823e                	mv	tp,a5
  asm volatile("mret");
    800000f4:	30200073          	mret
}
    800000f8:	60a2                	ld	ra,8(sp)
    800000fa:	6402                	ld	s0,0(sp)
    800000fc:	0141                	addi	sp,sp,16
    800000fe:	8082                	ret

0000000080000100 <consolewrite>:

//
// user write()s to the console go here.
//
int consolewrite(int user_src, uint64 src, int n)
{
    80000100:	715d                	addi	sp,sp,-80
    80000102:	e486                	sd	ra,72(sp)
    80000104:	e0a2                	sd	s0,64(sp)
    80000106:	fc26                	sd	s1,56(sp)
    80000108:	f84a                	sd	s2,48(sp)
    8000010a:	f44e                	sd	s3,40(sp)
    8000010c:	f052                	sd	s4,32(sp)
    8000010e:	ec56                	sd	s5,24(sp)
    80000110:	0880                	addi	s0,sp,80
  int i;

  for (i = 0; i < n; i++)
    80000112:	04c05763          	blez	a2,80000160 <consolewrite+0x60>
    80000116:	8a2a                	mv	s4,a0
    80000118:	84ae                	mv	s1,a1
    8000011a:	89b2                	mv	s3,a2
    8000011c:	4901                	li	s2,0
  {
    char c;
    if (either_copyin(&c, user_src, src + i, 1) == -1)
    8000011e:	5afd                	li	s5,-1
    80000120:	4685                	li	a3,1
    80000122:	8626                	mv	a2,s1
    80000124:	85d2                	mv	a1,s4
    80000126:	fbf40513          	addi	a0,s0,-65
    8000012a:	00002097          	auipc	ra,0x2
    8000012e:	3e8080e7          	jalr	1000(ra) # 80002512 <either_copyin>
    80000132:	01550d63          	beq	a0,s5,8000014c <consolewrite+0x4c>
      break;
    uartputc(c);
    80000136:	fbf44503          	lbu	a0,-65(s0)
    8000013a:	00000097          	auipc	ra,0x0
    8000013e:	784080e7          	jalr	1924(ra) # 800008be <uartputc>
  for (i = 0; i < n; i++)
    80000142:	2905                	addiw	s2,s2,1
    80000144:	0485                	addi	s1,s1,1
    80000146:	fd299de3          	bne	s3,s2,80000120 <consolewrite+0x20>
    8000014a:	894e                	mv	s2,s3
  }

  return i;
}
    8000014c:	854a                	mv	a0,s2
    8000014e:	60a6                	ld	ra,72(sp)
    80000150:	6406                	ld	s0,64(sp)
    80000152:	74e2                	ld	s1,56(sp)
    80000154:	7942                	ld	s2,48(sp)
    80000156:	79a2                	ld	s3,40(sp)
    80000158:	7a02                	ld	s4,32(sp)
    8000015a:	6ae2                	ld	s5,24(sp)
    8000015c:	6161                	addi	sp,sp,80
    8000015e:	8082                	ret
  for (i = 0; i < n; i++)
    80000160:	4901                	li	s2,0
    80000162:	b7ed                	j	8000014c <consolewrite+0x4c>

0000000080000164 <consoleread>:
// copy (up to) a whole input line to dst.
// user_dist indicates whether dst is a user
// or kernel address.
//
int consoleread(int user_dst, uint64 dst, int n)
{
    80000164:	7159                	addi	sp,sp,-112
    80000166:	f486                	sd	ra,104(sp)
    80000168:	f0a2                	sd	s0,96(sp)
    8000016a:	eca6                	sd	s1,88(sp)
    8000016c:	e8ca                	sd	s2,80(sp)
    8000016e:	e4ce                	sd	s3,72(sp)
    80000170:	e0d2                	sd	s4,64(sp)
    80000172:	fc56                	sd	s5,56(sp)
    80000174:	f85a                	sd	s6,48(sp)
    80000176:	f45e                	sd	s7,40(sp)
    80000178:	f062                	sd	s8,32(sp)
    8000017a:	ec66                	sd	s9,24(sp)
    8000017c:	e86a                	sd	s10,16(sp)
    8000017e:	1880                	addi	s0,sp,112
    80000180:	8aaa                	mv	s5,a0
    80000182:	8a2e                	mv	s4,a1
    80000184:	89b2                	mv	s3,a2
  uint target;
  int c;
  char cbuf;

  target = n;
    80000186:	00060b1b          	sext.w	s6,a2
  acquire(&cons.lock);
    8000018a:	00011517          	auipc	a0,0x11
    8000018e:	8c650513          	addi	a0,a0,-1850 # 80010a50 <cons>
    80000192:	00001097          	auipc	ra,0x1
    80000196:	a44080e7          	jalr	-1468(ra) # 80000bd6 <acquire>
  while (n > 0)
  {
    // wait until interrupt handler has put some
    // input into cons.buffer.
    while (cons.r == cons.w)
    8000019a:	00011497          	auipc	s1,0x11
    8000019e:	8b648493          	addi	s1,s1,-1866 # 80010a50 <cons>
      if (killed(myproc()))
      {
        release(&cons.lock);
        return -1;
      }
      sleep(&cons.r, &cons.lock);
    800001a2:	00011917          	auipc	s2,0x11
    800001a6:	94690913          	addi	s2,s2,-1722 # 80010ae8 <cons+0x98>
    }

    c = cons.buf[cons.r++ % INPUT_BUF_SIZE];

    if (c == C('D'))
    800001aa:	4b91                	li	s7,4
      break;
    }

    // copy the input byte to the user-space buffer.
    cbuf = c;
    if (either_copyout(user_dst, dst, &cbuf, 1) == -1)
    800001ac:	5c7d                	li	s8,-1
      break;

    dst++;
    --n;

    if (c == '\n')
    800001ae:	4ca9                	li	s9,10
  while (n > 0)
    800001b0:	07305b63          	blez	s3,80000226 <consoleread+0xc2>
    while (cons.r == cons.w)
    800001b4:	0984a783          	lw	a5,152(s1)
    800001b8:	09c4a703          	lw	a4,156(s1)
    800001bc:	02f71763          	bne	a4,a5,800001ea <consoleread+0x86>
      if (killed(myproc()))
    800001c0:	00001097          	auipc	ra,0x1
    800001c4:	7ec080e7          	jalr	2028(ra) # 800019ac <myproc>
    800001c8:	00002097          	auipc	ra,0x2
    800001cc:	194080e7          	jalr	404(ra) # 8000235c <killed>
    800001d0:	e535                	bnez	a0,8000023c <consoleread+0xd8>
      sleep(&cons.r, &cons.lock);
    800001d2:	85a6                	mv	a1,s1
    800001d4:	854a                	mv	a0,s2
    800001d6:	00002097          	auipc	ra,0x2
    800001da:	ed2080e7          	jalr	-302(ra) # 800020a8 <sleep>
    while (cons.r == cons.w)
    800001de:	0984a783          	lw	a5,152(s1)
    800001e2:	09c4a703          	lw	a4,156(s1)
    800001e6:	fcf70de3          	beq	a4,a5,800001c0 <consoleread+0x5c>
    c = cons.buf[cons.r++ % INPUT_BUF_SIZE];
    800001ea:	0017871b          	addiw	a4,a5,1
    800001ee:	08e4ac23          	sw	a4,152(s1)
    800001f2:	07f7f713          	andi	a4,a5,127
    800001f6:	9726                	add	a4,a4,s1
    800001f8:	01874703          	lbu	a4,24(a4)
    800001fc:	00070d1b          	sext.w	s10,a4
    if (c == C('D'))
    80000200:	077d0563          	beq	s10,s7,8000026a <consoleread+0x106>
    cbuf = c;
    80000204:	f8e40fa3          	sb	a4,-97(s0)
    if (either_copyout(user_dst, dst, &cbuf, 1) == -1)
    80000208:	4685                	li	a3,1
    8000020a:	f9f40613          	addi	a2,s0,-97
    8000020e:	85d2                	mv	a1,s4
    80000210:	8556                	mv	a0,s5
    80000212:	00002097          	auipc	ra,0x2
    80000216:	2aa080e7          	jalr	682(ra) # 800024bc <either_copyout>
    8000021a:	01850663          	beq	a0,s8,80000226 <consoleread+0xc2>
    dst++;
    8000021e:	0a05                	addi	s4,s4,1
    --n;
    80000220:	39fd                	addiw	s3,s3,-1
    if (c == '\n')
    80000222:	f99d17e3          	bne	s10,s9,800001b0 <consoleread+0x4c>
      // a whole line has arrived, return to
      // the user-level read().
      break;
    }
  }
  release(&cons.lock);
    80000226:	00011517          	auipc	a0,0x11
    8000022a:	82a50513          	addi	a0,a0,-2006 # 80010a50 <cons>
    8000022e:	00001097          	auipc	ra,0x1
    80000232:	a5c080e7          	jalr	-1444(ra) # 80000c8a <release>

  return target - n;
    80000236:	413b053b          	subw	a0,s6,s3
    8000023a:	a811                	j	8000024e <consoleread+0xea>
        release(&cons.lock);
    8000023c:	00011517          	auipc	a0,0x11
    80000240:	81450513          	addi	a0,a0,-2028 # 80010a50 <cons>
    80000244:	00001097          	auipc	ra,0x1
    80000248:	a46080e7          	jalr	-1466(ra) # 80000c8a <release>
        return -1;
    8000024c:	557d                	li	a0,-1
}
    8000024e:	70a6                	ld	ra,104(sp)
    80000250:	7406                	ld	s0,96(sp)
    80000252:	64e6                	ld	s1,88(sp)
    80000254:	6946                	ld	s2,80(sp)
    80000256:	69a6                	ld	s3,72(sp)
    80000258:	6a06                	ld	s4,64(sp)
    8000025a:	7ae2                	ld	s5,56(sp)
    8000025c:	7b42                	ld	s6,48(sp)
    8000025e:	7ba2                	ld	s7,40(sp)
    80000260:	7c02                	ld	s8,32(sp)
    80000262:	6ce2                	ld	s9,24(sp)
    80000264:	6d42                	ld	s10,16(sp)
    80000266:	6165                	addi	sp,sp,112
    80000268:	8082                	ret
      if (n < target)
    8000026a:	0009871b          	sext.w	a4,s3
    8000026e:	fb677ce3          	bgeu	a4,s6,80000226 <consoleread+0xc2>
        cons.r--;
    80000272:	00011717          	auipc	a4,0x11
    80000276:	86f72b23          	sw	a5,-1930(a4) # 80010ae8 <cons+0x98>
    8000027a:	b775                	j	80000226 <consoleread+0xc2>

000000008000027c <consputc>:
{
    8000027c:	1141                	addi	sp,sp,-16
    8000027e:	e406                	sd	ra,8(sp)
    80000280:	e022                	sd	s0,0(sp)
    80000282:	0800                	addi	s0,sp,16
  if (c == BACKSPACE)
    80000284:	10000793          	li	a5,256
    80000288:	00f50a63          	beq	a0,a5,8000029c <consputc+0x20>
    uartputc_sync(c);
    8000028c:	00000097          	auipc	ra,0x0
    80000290:	560080e7          	jalr	1376(ra) # 800007ec <uartputc_sync>
}
    80000294:	60a2                	ld	ra,8(sp)
    80000296:	6402                	ld	s0,0(sp)
    80000298:	0141                	addi	sp,sp,16
    8000029a:	8082                	ret
    uartputc_sync('\b');
    8000029c:	4521                	li	a0,8
    8000029e:	00000097          	auipc	ra,0x0
    800002a2:	54e080e7          	jalr	1358(ra) # 800007ec <uartputc_sync>
    uartputc_sync(' ');
    800002a6:	02000513          	li	a0,32
    800002aa:	00000097          	auipc	ra,0x0
    800002ae:	542080e7          	jalr	1346(ra) # 800007ec <uartputc_sync>
    uartputc_sync('\b');
    800002b2:	4521                	li	a0,8
    800002b4:	00000097          	auipc	ra,0x0
    800002b8:	538080e7          	jalr	1336(ra) # 800007ec <uartputc_sync>
    800002bc:	bfe1                	j	80000294 <consputc+0x18>

00000000800002be <consoleintr>:
// uartintr() calls this for input character.
// do erase/kill processing, append to cons.buf,
// wake up consoleread() if a whole line has arrived.
//
void consoleintr(int c)
{
    800002be:	1101                	addi	sp,sp,-32
    800002c0:	ec06                	sd	ra,24(sp)
    800002c2:	e822                	sd	s0,16(sp)
    800002c4:	e426                	sd	s1,8(sp)
    800002c6:	e04a                	sd	s2,0(sp)
    800002c8:	1000                	addi	s0,sp,32
    800002ca:	84aa                	mv	s1,a0
  acquire(&cons.lock);
    800002cc:	00010517          	auipc	a0,0x10
    800002d0:	78450513          	addi	a0,a0,1924 # 80010a50 <cons>
    800002d4:	00001097          	auipc	ra,0x1
    800002d8:	902080e7          	jalr	-1790(ra) # 80000bd6 <acquire>

  switch (c)
    800002dc:	47d5                	li	a5,21
    800002de:	0af48663          	beq	s1,a5,8000038a <consoleintr+0xcc>
    800002e2:	0297ca63          	blt	a5,s1,80000316 <consoleintr+0x58>
    800002e6:	47a1                	li	a5,8
    800002e8:	0ef48763          	beq	s1,a5,800003d6 <consoleintr+0x118>
    800002ec:	47c1                	li	a5,16
    800002ee:	10f49a63          	bne	s1,a5,80000402 <consoleintr+0x144>
  {
  case C('P'): // Print process list.
    procdump();
    800002f2:	00002097          	auipc	ra,0x2
    800002f6:	276080e7          	jalr	630(ra) # 80002568 <procdump>
      }
    }
    break;
  }

  release(&cons.lock);
    800002fa:	00010517          	auipc	a0,0x10
    800002fe:	75650513          	addi	a0,a0,1878 # 80010a50 <cons>
    80000302:	00001097          	auipc	ra,0x1
    80000306:	988080e7          	jalr	-1656(ra) # 80000c8a <release>
}
    8000030a:	60e2                	ld	ra,24(sp)
    8000030c:	6442                	ld	s0,16(sp)
    8000030e:	64a2                	ld	s1,8(sp)
    80000310:	6902                	ld	s2,0(sp)
    80000312:	6105                	addi	sp,sp,32
    80000314:	8082                	ret
  switch (c)
    80000316:	07f00793          	li	a5,127
    8000031a:	0af48e63          	beq	s1,a5,800003d6 <consoleintr+0x118>
    if (c != 0 && cons.e - cons.r < INPUT_BUF_SIZE)
    8000031e:	00010717          	auipc	a4,0x10
    80000322:	73270713          	addi	a4,a4,1842 # 80010a50 <cons>
    80000326:	0a072783          	lw	a5,160(a4)
    8000032a:	09872703          	lw	a4,152(a4)
    8000032e:	9f99                	subw	a5,a5,a4
    80000330:	07f00713          	li	a4,127
    80000334:	fcf763e3          	bltu	a4,a5,800002fa <consoleintr+0x3c>
      c = (c == '\r') ? '\n' : c;
    80000338:	47b5                	li	a5,13
    8000033a:	0cf48763          	beq	s1,a5,80000408 <consoleintr+0x14a>
      consputc(c);
    8000033e:	8526                	mv	a0,s1
    80000340:	00000097          	auipc	ra,0x0
    80000344:	f3c080e7          	jalr	-196(ra) # 8000027c <consputc>
      cons.buf[cons.e++ % INPUT_BUF_SIZE] = c;
    80000348:	00010797          	auipc	a5,0x10
    8000034c:	70878793          	addi	a5,a5,1800 # 80010a50 <cons>
    80000350:	0a07a683          	lw	a3,160(a5)
    80000354:	0016871b          	addiw	a4,a3,1
    80000358:	0007061b          	sext.w	a2,a4
    8000035c:	0ae7a023          	sw	a4,160(a5)
    80000360:	07f6f693          	andi	a3,a3,127
    80000364:	97b6                	add	a5,a5,a3
    80000366:	00978c23          	sb	s1,24(a5)
      if (c == '\n' || c == C('D') || cons.e - cons.r == INPUT_BUF_SIZE)
    8000036a:	47a9                	li	a5,10
    8000036c:	0cf48563          	beq	s1,a5,80000436 <consoleintr+0x178>
    80000370:	4791                	li	a5,4
    80000372:	0cf48263          	beq	s1,a5,80000436 <consoleintr+0x178>
    80000376:	00010797          	auipc	a5,0x10
    8000037a:	7727a783          	lw	a5,1906(a5) # 80010ae8 <cons+0x98>
    8000037e:	9f1d                	subw	a4,a4,a5
    80000380:	08000793          	li	a5,128
    80000384:	f6f71be3          	bne	a4,a5,800002fa <consoleintr+0x3c>
    80000388:	a07d                	j	80000436 <consoleintr+0x178>
    while (cons.e != cons.w &&
    8000038a:	00010717          	auipc	a4,0x10
    8000038e:	6c670713          	addi	a4,a4,1734 # 80010a50 <cons>
    80000392:	0a072783          	lw	a5,160(a4)
    80000396:	09c72703          	lw	a4,156(a4)
           cons.buf[(cons.e - 1) % INPUT_BUF_SIZE] != '\n')
    8000039a:	00010497          	auipc	s1,0x10
    8000039e:	6b648493          	addi	s1,s1,1718 # 80010a50 <cons>
    while (cons.e != cons.w &&
    800003a2:	4929                	li	s2,10
    800003a4:	f4f70be3          	beq	a4,a5,800002fa <consoleintr+0x3c>
           cons.buf[(cons.e - 1) % INPUT_BUF_SIZE] != '\n')
    800003a8:	37fd                	addiw	a5,a5,-1
    800003aa:	07f7f713          	andi	a4,a5,127
    800003ae:	9726                	add	a4,a4,s1
    while (cons.e != cons.w &&
    800003b0:	01874703          	lbu	a4,24(a4)
    800003b4:	f52703e3          	beq	a4,s2,800002fa <consoleintr+0x3c>
      cons.e--;
    800003b8:	0af4a023          	sw	a5,160(s1)
      consputc(BACKSPACE);
    800003bc:	10000513          	li	a0,256
    800003c0:	00000097          	auipc	ra,0x0
    800003c4:	ebc080e7          	jalr	-324(ra) # 8000027c <consputc>
    while (cons.e != cons.w &&
    800003c8:	0a04a783          	lw	a5,160(s1)
    800003cc:	09c4a703          	lw	a4,156(s1)
    800003d0:	fcf71ce3          	bne	a4,a5,800003a8 <consoleintr+0xea>
    800003d4:	b71d                	j	800002fa <consoleintr+0x3c>
    if (cons.e != cons.w)
    800003d6:	00010717          	auipc	a4,0x10
    800003da:	67a70713          	addi	a4,a4,1658 # 80010a50 <cons>
    800003de:	0a072783          	lw	a5,160(a4)
    800003e2:	09c72703          	lw	a4,156(a4)
    800003e6:	f0f70ae3          	beq	a4,a5,800002fa <consoleintr+0x3c>
      cons.e--;
    800003ea:	37fd                	addiw	a5,a5,-1
    800003ec:	00010717          	auipc	a4,0x10
    800003f0:	70f72223          	sw	a5,1796(a4) # 80010af0 <cons+0xa0>
      consputc(BACKSPACE);
    800003f4:	10000513          	li	a0,256
    800003f8:	00000097          	auipc	ra,0x0
    800003fc:	e84080e7          	jalr	-380(ra) # 8000027c <consputc>
    80000400:	bded                	j	800002fa <consoleintr+0x3c>
    if (c != 0 && cons.e - cons.r < INPUT_BUF_SIZE)
    80000402:	ee048ce3          	beqz	s1,800002fa <consoleintr+0x3c>
    80000406:	bf21                	j	8000031e <consoleintr+0x60>
      consputc(c);
    80000408:	4529                	li	a0,10
    8000040a:	00000097          	auipc	ra,0x0
    8000040e:	e72080e7          	jalr	-398(ra) # 8000027c <consputc>
      cons.buf[cons.e++ % INPUT_BUF_SIZE] = c;
    80000412:	00010797          	auipc	a5,0x10
    80000416:	63e78793          	addi	a5,a5,1598 # 80010a50 <cons>
    8000041a:	0a07a703          	lw	a4,160(a5)
    8000041e:	0017069b          	addiw	a3,a4,1
    80000422:	0006861b          	sext.w	a2,a3
    80000426:	0ad7a023          	sw	a3,160(a5)
    8000042a:	07f77713          	andi	a4,a4,127
    8000042e:	97ba                	add	a5,a5,a4
    80000430:	4729                	li	a4,10
    80000432:	00e78c23          	sb	a4,24(a5)
        cons.w = cons.e;
    80000436:	00010797          	auipc	a5,0x10
    8000043a:	6ac7ab23          	sw	a2,1718(a5) # 80010aec <cons+0x9c>
        wakeup(&cons.r);
    8000043e:	00010517          	auipc	a0,0x10
    80000442:	6aa50513          	addi	a0,a0,1706 # 80010ae8 <cons+0x98>
    80000446:	00002097          	auipc	ra,0x2
    8000044a:	cc6080e7          	jalr	-826(ra) # 8000210c <wakeup>
    8000044e:	b575                	j	800002fa <consoleintr+0x3c>

0000000080000450 <consoleinit>:

void consoleinit(void)
{
    80000450:	1141                	addi	sp,sp,-16
    80000452:	e406                	sd	ra,8(sp)
    80000454:	e022                	sd	s0,0(sp)
    80000456:	0800                	addi	s0,sp,16
  initlock(&cons.lock, "cons");
    80000458:	00008597          	auipc	a1,0x8
    8000045c:	bb858593          	addi	a1,a1,-1096 # 80008010 <etext+0x10>
    80000460:	00010517          	auipc	a0,0x10
    80000464:	5f050513          	addi	a0,a0,1520 # 80010a50 <cons>
    80000468:	00000097          	auipc	ra,0x0
    8000046c:	6de080e7          	jalr	1758(ra) # 80000b46 <initlock>

  uartinit();
    80000470:	00000097          	auipc	ra,0x0
    80000474:	32c080e7          	jalr	812(ra) # 8000079c <uartinit>

  // connect read and write system calls
  // to consoleread and consolewrite.
  devsw[CONSOLE].read = consoleread;
    80000478:	00022797          	auipc	a5,0x22
    8000047c:	19878793          	addi	a5,a5,408 # 80022610 <devsw>
    80000480:	00000717          	auipc	a4,0x0
    80000484:	ce470713          	addi	a4,a4,-796 # 80000164 <consoleread>
    80000488:	eb98                	sd	a4,16(a5)
  devsw[CONSOLE].write = consolewrite;
    8000048a:	00000717          	auipc	a4,0x0
    8000048e:	c7670713          	addi	a4,a4,-906 # 80000100 <consolewrite>
    80000492:	ef98                	sd	a4,24(a5)
}
    80000494:	60a2                	ld	ra,8(sp)
    80000496:	6402                	ld	s0,0(sp)
    80000498:	0141                	addi	sp,sp,16
    8000049a:	8082                	ret

000000008000049c <printint>:

static char digits[] = "0123456789abcdef";

static void
printint(int xx, int base, int sign)
{
    8000049c:	7179                	addi	sp,sp,-48
    8000049e:	f406                	sd	ra,40(sp)
    800004a0:	f022                	sd	s0,32(sp)
    800004a2:	ec26                	sd	s1,24(sp)
    800004a4:	e84a                	sd	s2,16(sp)
    800004a6:	1800                	addi	s0,sp,48
  char buf[16];
  int i;
  uint x;

  if (sign && (sign = xx < 0))
    800004a8:	c219                	beqz	a2,800004ae <printint+0x12>
    800004aa:	08054763          	bltz	a0,80000538 <printint+0x9c>
    x = -xx;
  else
    x = xx;
    800004ae:	2501                	sext.w	a0,a0
    800004b0:	4881                	li	a7,0
    800004b2:	fd040693          	addi	a3,s0,-48

  i = 0;
    800004b6:	4701                	li	a4,0
  do
  {
    buf[i++] = digits[x % base];
    800004b8:	2581                	sext.w	a1,a1
    800004ba:	00008617          	auipc	a2,0x8
    800004be:	b8660613          	addi	a2,a2,-1146 # 80008040 <digits>
    800004c2:	883a                	mv	a6,a4
    800004c4:	2705                	addiw	a4,a4,1
    800004c6:	02b577bb          	remuw	a5,a0,a1
    800004ca:	1782                	slli	a5,a5,0x20
    800004cc:	9381                	srli	a5,a5,0x20
    800004ce:	97b2                	add	a5,a5,a2
    800004d0:	0007c783          	lbu	a5,0(a5)
    800004d4:	00f68023          	sb	a5,0(a3)
  } while ((x /= base) != 0);
    800004d8:	0005079b          	sext.w	a5,a0
    800004dc:	02b5553b          	divuw	a0,a0,a1
    800004e0:	0685                	addi	a3,a3,1
    800004e2:	feb7f0e3          	bgeu	a5,a1,800004c2 <printint+0x26>

  if (sign)
    800004e6:	00088c63          	beqz	a7,800004fe <printint+0x62>
    buf[i++] = '-';
    800004ea:	fe070793          	addi	a5,a4,-32
    800004ee:	00878733          	add	a4,a5,s0
    800004f2:	02d00793          	li	a5,45
    800004f6:	fef70823          	sb	a5,-16(a4)
    800004fa:	0028071b          	addiw	a4,a6,2

  while (--i >= 0)
    800004fe:	02e05763          	blez	a4,8000052c <printint+0x90>
    80000502:	fd040793          	addi	a5,s0,-48
    80000506:	00e784b3          	add	s1,a5,a4
    8000050a:	fff78913          	addi	s2,a5,-1
    8000050e:	993a                	add	s2,s2,a4
    80000510:	377d                	addiw	a4,a4,-1
    80000512:	1702                	slli	a4,a4,0x20
    80000514:	9301                	srli	a4,a4,0x20
    80000516:	40e90933          	sub	s2,s2,a4
    consputc(buf[i]);
    8000051a:	fff4c503          	lbu	a0,-1(s1)
    8000051e:	00000097          	auipc	ra,0x0
    80000522:	d5e080e7          	jalr	-674(ra) # 8000027c <consputc>
  while (--i >= 0)
    80000526:	14fd                	addi	s1,s1,-1
    80000528:	ff2499e3          	bne	s1,s2,8000051a <printint+0x7e>
}
    8000052c:	70a2                	ld	ra,40(sp)
    8000052e:	7402                	ld	s0,32(sp)
    80000530:	64e2                	ld	s1,24(sp)
    80000532:	6942                	ld	s2,16(sp)
    80000534:	6145                	addi	sp,sp,48
    80000536:	8082                	ret
    x = -xx;
    80000538:	40a0053b          	negw	a0,a0
  if (sign && (sign = xx < 0))
    8000053c:	4885                	li	a7,1
    x = -xx;
    8000053e:	bf95                	j	800004b2 <printint+0x16>

0000000080000540 <panic>:
  if (locking)
    release(&pr.lock);
}

void panic(char *s)
{
    80000540:	1101                	addi	sp,sp,-32
    80000542:	ec06                	sd	ra,24(sp)
    80000544:	e822                	sd	s0,16(sp)
    80000546:	e426                	sd	s1,8(sp)
    80000548:	1000                	addi	s0,sp,32
    8000054a:	84aa                	mv	s1,a0
  pr.locking = 0;
    8000054c:	00010797          	auipc	a5,0x10
    80000550:	5c07a223          	sw	zero,1476(a5) # 80010b10 <pr+0x18>
  printf("panic: ");
    80000554:	00008517          	auipc	a0,0x8
    80000558:	ac450513          	addi	a0,a0,-1340 # 80008018 <etext+0x18>
    8000055c:	00000097          	auipc	ra,0x0
    80000560:	02e080e7          	jalr	46(ra) # 8000058a <printf>
  printf(s);
    80000564:	8526                	mv	a0,s1
    80000566:	00000097          	auipc	ra,0x0
    8000056a:	024080e7          	jalr	36(ra) # 8000058a <printf>
  printf("\n");
    8000056e:	00008517          	auipc	a0,0x8
    80000572:	b5a50513          	addi	a0,a0,-1190 # 800080c8 <digits+0x88>
    80000576:	00000097          	auipc	ra,0x0
    8000057a:	014080e7          	jalr	20(ra) # 8000058a <printf>
  panicked = 1; // freeze uart output from other CPUs
    8000057e:	4785                	li	a5,1
    80000580:	00008717          	auipc	a4,0x8
    80000584:	34f72823          	sw	a5,848(a4) # 800088d0 <panicked>
  for (;;)
    80000588:	a001                	j	80000588 <panic+0x48>

000000008000058a <printf>:
{
    8000058a:	7131                	addi	sp,sp,-192
    8000058c:	fc86                	sd	ra,120(sp)
    8000058e:	f8a2                	sd	s0,112(sp)
    80000590:	f4a6                	sd	s1,104(sp)
    80000592:	f0ca                	sd	s2,96(sp)
    80000594:	ecce                	sd	s3,88(sp)
    80000596:	e8d2                	sd	s4,80(sp)
    80000598:	e4d6                	sd	s5,72(sp)
    8000059a:	e0da                	sd	s6,64(sp)
    8000059c:	fc5e                	sd	s7,56(sp)
    8000059e:	f862                	sd	s8,48(sp)
    800005a0:	f466                	sd	s9,40(sp)
    800005a2:	f06a                	sd	s10,32(sp)
    800005a4:	ec6e                	sd	s11,24(sp)
    800005a6:	0100                	addi	s0,sp,128
    800005a8:	8a2a                	mv	s4,a0
    800005aa:	e40c                	sd	a1,8(s0)
    800005ac:	e810                	sd	a2,16(s0)
    800005ae:	ec14                	sd	a3,24(s0)
    800005b0:	f018                	sd	a4,32(s0)
    800005b2:	f41c                	sd	a5,40(s0)
    800005b4:	03043823          	sd	a6,48(s0)
    800005b8:	03143c23          	sd	a7,56(s0)
  locking = pr.locking;
    800005bc:	00010d97          	auipc	s11,0x10
    800005c0:	554dad83          	lw	s11,1364(s11) # 80010b10 <pr+0x18>
  if (locking)
    800005c4:	020d9b63          	bnez	s11,800005fa <printf+0x70>
  if (fmt == 0)
    800005c8:	040a0263          	beqz	s4,8000060c <printf+0x82>
  va_start(ap, fmt);
    800005cc:	00840793          	addi	a5,s0,8
    800005d0:	f8f43423          	sd	a5,-120(s0)
  for (i = 0; (c = fmt[i] & 0xff) != 0; i++)
    800005d4:	000a4503          	lbu	a0,0(s4)
    800005d8:	14050f63          	beqz	a0,80000736 <printf+0x1ac>
    800005dc:	4981                	li	s3,0
    if (c != '%')
    800005de:	02500a93          	li	s5,37
    switch (c)
    800005e2:	07000b93          	li	s7,112
  consputc('x');
    800005e6:	4d41                	li	s10,16
    consputc(digits[x >> (sizeof(uint64) * 8 - 4)]);
    800005e8:	00008b17          	auipc	s6,0x8
    800005ec:	a58b0b13          	addi	s6,s6,-1448 # 80008040 <digits>
    switch (c)
    800005f0:	07300c93          	li	s9,115
    800005f4:	06400c13          	li	s8,100
    800005f8:	a82d                	j	80000632 <printf+0xa8>
    acquire(&pr.lock);
    800005fa:	00010517          	auipc	a0,0x10
    800005fe:	4fe50513          	addi	a0,a0,1278 # 80010af8 <pr>
    80000602:	00000097          	auipc	ra,0x0
    80000606:	5d4080e7          	jalr	1492(ra) # 80000bd6 <acquire>
    8000060a:	bf7d                	j	800005c8 <printf+0x3e>
    panic("null fmt");
    8000060c:	00008517          	auipc	a0,0x8
    80000610:	a1c50513          	addi	a0,a0,-1508 # 80008028 <etext+0x28>
    80000614:	00000097          	auipc	ra,0x0
    80000618:	f2c080e7          	jalr	-212(ra) # 80000540 <panic>
      consputc(c);
    8000061c:	00000097          	auipc	ra,0x0
    80000620:	c60080e7          	jalr	-928(ra) # 8000027c <consputc>
  for (i = 0; (c = fmt[i] & 0xff) != 0; i++)
    80000624:	2985                	addiw	s3,s3,1
    80000626:	013a07b3          	add	a5,s4,s3
    8000062a:	0007c503          	lbu	a0,0(a5)
    8000062e:	10050463          	beqz	a0,80000736 <printf+0x1ac>
    if (c != '%')
    80000632:	ff5515e3          	bne	a0,s5,8000061c <printf+0x92>
    c = fmt[++i] & 0xff;
    80000636:	2985                	addiw	s3,s3,1
    80000638:	013a07b3          	add	a5,s4,s3
    8000063c:	0007c783          	lbu	a5,0(a5)
    80000640:	0007849b          	sext.w	s1,a5
    if (c == 0)
    80000644:	cbed                	beqz	a5,80000736 <printf+0x1ac>
    switch (c)
    80000646:	05778a63          	beq	a5,s7,8000069a <printf+0x110>
    8000064a:	02fbf663          	bgeu	s7,a5,80000676 <printf+0xec>
    8000064e:	09978863          	beq	a5,s9,800006de <printf+0x154>
    80000652:	07800713          	li	a4,120
    80000656:	0ce79563          	bne	a5,a4,80000720 <printf+0x196>
      printint(va_arg(ap, int), 16, 1);
    8000065a:	f8843783          	ld	a5,-120(s0)
    8000065e:	00878713          	addi	a4,a5,8
    80000662:	f8e43423          	sd	a4,-120(s0)
    80000666:	4605                	li	a2,1
    80000668:	85ea                	mv	a1,s10
    8000066a:	4388                	lw	a0,0(a5)
    8000066c:	00000097          	auipc	ra,0x0
    80000670:	e30080e7          	jalr	-464(ra) # 8000049c <printint>
      break;
    80000674:	bf45                	j	80000624 <printf+0x9a>
    switch (c)
    80000676:	09578f63          	beq	a5,s5,80000714 <printf+0x18a>
    8000067a:	0b879363          	bne	a5,s8,80000720 <printf+0x196>
      printint(va_arg(ap, int), 10, 1);
    8000067e:	f8843783          	ld	a5,-120(s0)
    80000682:	00878713          	addi	a4,a5,8
    80000686:	f8e43423          	sd	a4,-120(s0)
    8000068a:	4605                	li	a2,1
    8000068c:	45a9                	li	a1,10
    8000068e:	4388                	lw	a0,0(a5)
    80000690:	00000097          	auipc	ra,0x0
    80000694:	e0c080e7          	jalr	-500(ra) # 8000049c <printint>
      break;
    80000698:	b771                	j	80000624 <printf+0x9a>
      printptr(va_arg(ap, uint64));
    8000069a:	f8843783          	ld	a5,-120(s0)
    8000069e:	00878713          	addi	a4,a5,8
    800006a2:	f8e43423          	sd	a4,-120(s0)
    800006a6:	0007b903          	ld	s2,0(a5)
  consputc('0');
    800006aa:	03000513          	li	a0,48
    800006ae:	00000097          	auipc	ra,0x0
    800006b2:	bce080e7          	jalr	-1074(ra) # 8000027c <consputc>
  consputc('x');
    800006b6:	07800513          	li	a0,120
    800006ba:	00000097          	auipc	ra,0x0
    800006be:	bc2080e7          	jalr	-1086(ra) # 8000027c <consputc>
    800006c2:	84ea                	mv	s1,s10
    consputc(digits[x >> (sizeof(uint64) * 8 - 4)]);
    800006c4:	03c95793          	srli	a5,s2,0x3c
    800006c8:	97da                	add	a5,a5,s6
    800006ca:	0007c503          	lbu	a0,0(a5)
    800006ce:	00000097          	auipc	ra,0x0
    800006d2:	bae080e7          	jalr	-1106(ra) # 8000027c <consputc>
  for (i = 0; i < (sizeof(uint64) * 2); i++, x <<= 4)
    800006d6:	0912                	slli	s2,s2,0x4
    800006d8:	34fd                	addiw	s1,s1,-1
    800006da:	f4ed                	bnez	s1,800006c4 <printf+0x13a>
    800006dc:	b7a1                	j	80000624 <printf+0x9a>
      if ((s = va_arg(ap, char *)) == 0)
    800006de:	f8843783          	ld	a5,-120(s0)
    800006e2:	00878713          	addi	a4,a5,8
    800006e6:	f8e43423          	sd	a4,-120(s0)
    800006ea:	6384                	ld	s1,0(a5)
    800006ec:	cc89                	beqz	s1,80000706 <printf+0x17c>
      for (; *s; s++)
    800006ee:	0004c503          	lbu	a0,0(s1)
    800006f2:	d90d                	beqz	a0,80000624 <printf+0x9a>
        consputc(*s);
    800006f4:	00000097          	auipc	ra,0x0
    800006f8:	b88080e7          	jalr	-1144(ra) # 8000027c <consputc>
      for (; *s; s++)
    800006fc:	0485                	addi	s1,s1,1
    800006fe:	0004c503          	lbu	a0,0(s1)
    80000702:	f96d                	bnez	a0,800006f4 <printf+0x16a>
    80000704:	b705                	j	80000624 <printf+0x9a>
        s = "(null)";
    80000706:	00008497          	auipc	s1,0x8
    8000070a:	91a48493          	addi	s1,s1,-1766 # 80008020 <etext+0x20>
      for (; *s; s++)
    8000070e:	02800513          	li	a0,40
    80000712:	b7cd                	j	800006f4 <printf+0x16a>
      consputc('%');
    80000714:	8556                	mv	a0,s5
    80000716:	00000097          	auipc	ra,0x0
    8000071a:	b66080e7          	jalr	-1178(ra) # 8000027c <consputc>
      break;
    8000071e:	b719                	j	80000624 <printf+0x9a>
      consputc('%');
    80000720:	8556                	mv	a0,s5
    80000722:	00000097          	auipc	ra,0x0
    80000726:	b5a080e7          	jalr	-1190(ra) # 8000027c <consputc>
      consputc(c);
    8000072a:	8526                	mv	a0,s1
    8000072c:	00000097          	auipc	ra,0x0
    80000730:	b50080e7          	jalr	-1200(ra) # 8000027c <consputc>
      break;
    80000734:	bdc5                	j	80000624 <printf+0x9a>
  if (locking)
    80000736:	020d9163          	bnez	s11,80000758 <printf+0x1ce>
}
    8000073a:	70e6                	ld	ra,120(sp)
    8000073c:	7446                	ld	s0,112(sp)
    8000073e:	74a6                	ld	s1,104(sp)
    80000740:	7906                	ld	s2,96(sp)
    80000742:	69e6                	ld	s3,88(sp)
    80000744:	6a46                	ld	s4,80(sp)
    80000746:	6aa6                	ld	s5,72(sp)
    80000748:	6b06                	ld	s6,64(sp)
    8000074a:	7be2                	ld	s7,56(sp)
    8000074c:	7c42                	ld	s8,48(sp)
    8000074e:	7ca2                	ld	s9,40(sp)
    80000750:	7d02                	ld	s10,32(sp)
    80000752:	6de2                	ld	s11,24(sp)
    80000754:	6129                	addi	sp,sp,192
    80000756:	8082                	ret
    release(&pr.lock);
    80000758:	00010517          	auipc	a0,0x10
    8000075c:	3a050513          	addi	a0,a0,928 # 80010af8 <pr>
    80000760:	00000097          	auipc	ra,0x0
    80000764:	52a080e7          	jalr	1322(ra) # 80000c8a <release>
}
    80000768:	bfc9                	j	8000073a <printf+0x1b0>

000000008000076a <printfinit>:
    ;
}

void printfinit(void)
{
    8000076a:	1101                	addi	sp,sp,-32
    8000076c:	ec06                	sd	ra,24(sp)
    8000076e:	e822                	sd	s0,16(sp)
    80000770:	e426                	sd	s1,8(sp)
    80000772:	1000                	addi	s0,sp,32
  initlock(&pr.lock, "pr");
    80000774:	00010497          	auipc	s1,0x10
    80000778:	38448493          	addi	s1,s1,900 # 80010af8 <pr>
    8000077c:	00008597          	auipc	a1,0x8
    80000780:	8bc58593          	addi	a1,a1,-1860 # 80008038 <etext+0x38>
    80000784:	8526                	mv	a0,s1
    80000786:	00000097          	auipc	ra,0x0
    8000078a:	3c0080e7          	jalr	960(ra) # 80000b46 <initlock>
  pr.locking = 1;
    8000078e:	4785                	li	a5,1
    80000790:	cc9c                	sw	a5,24(s1)
}
    80000792:	60e2                	ld	ra,24(sp)
    80000794:	6442                	ld	s0,16(sp)
    80000796:	64a2                	ld	s1,8(sp)
    80000798:	6105                	addi	sp,sp,32
    8000079a:	8082                	ret

000000008000079c <uartinit>:
extern volatile int panicked; // from printf.c

void uartstart();

void uartinit(void)
{
    8000079c:	1141                	addi	sp,sp,-16
    8000079e:	e406                	sd	ra,8(sp)
    800007a0:	e022                	sd	s0,0(sp)
    800007a2:	0800                	addi	s0,sp,16
  // disable interrupts.
  WriteReg(IER, 0x00);
    800007a4:	100007b7          	lui	a5,0x10000
    800007a8:	000780a3          	sb	zero,1(a5) # 10000001 <_entry-0x6fffffff>

  // special mode to set baud rate.
  WriteReg(LCR, LCR_BAUD_LATCH);
    800007ac:	f8000713          	li	a4,-128
    800007b0:	00e781a3          	sb	a4,3(a5)

  // LSB for baud rate of 38.4K.
  WriteReg(0, 0x03);
    800007b4:	470d                	li	a4,3
    800007b6:	00e78023          	sb	a4,0(a5)

  // MSB for baud rate of 38.4K.
  WriteReg(1, 0x00);
    800007ba:	000780a3          	sb	zero,1(a5)

  // leave set-baud mode,
  // and set word length to 8 bits, no parity.
  WriteReg(LCR, LCR_EIGHT_BITS);
    800007be:	00e781a3          	sb	a4,3(a5)

  // reset and enable FIFOs.
  WriteReg(FCR, FCR_FIFO_ENABLE | FCR_FIFO_CLEAR);
    800007c2:	469d                	li	a3,7
    800007c4:	00d78123          	sb	a3,2(a5)

  // enable transmit and receive interrupts.
  WriteReg(IER, IER_TX_ENABLE | IER_RX_ENABLE);
    800007c8:	00e780a3          	sb	a4,1(a5)

  initlock(&uart_tx_lock, "uart");
    800007cc:	00008597          	auipc	a1,0x8
    800007d0:	88c58593          	addi	a1,a1,-1908 # 80008058 <digits+0x18>
    800007d4:	00010517          	auipc	a0,0x10
    800007d8:	34450513          	addi	a0,a0,836 # 80010b18 <uart_tx_lock>
    800007dc:	00000097          	auipc	ra,0x0
    800007e0:	36a080e7          	jalr	874(ra) # 80000b46 <initlock>
}
    800007e4:	60a2                	ld	ra,8(sp)
    800007e6:	6402                	ld	s0,0(sp)
    800007e8:	0141                	addi	sp,sp,16
    800007ea:	8082                	ret

00000000800007ec <uartputc_sync>:
// alternate version of uartputc() that doesn't
// use interrupts, for use by kernel printf() and
// to echo characters. it spins waiting for the uart's
// output register to be empty.
void uartputc_sync(int c)
{
    800007ec:	1101                	addi	sp,sp,-32
    800007ee:	ec06                	sd	ra,24(sp)
    800007f0:	e822                	sd	s0,16(sp)
    800007f2:	e426                	sd	s1,8(sp)
    800007f4:	1000                	addi	s0,sp,32
    800007f6:	84aa                	mv	s1,a0
  push_off();
    800007f8:	00000097          	auipc	ra,0x0
    800007fc:	392080e7          	jalr	914(ra) # 80000b8a <push_off>

  if (panicked)
    80000800:	00008797          	auipc	a5,0x8
    80000804:	0d07a783          	lw	a5,208(a5) # 800088d0 <panicked>
    for (;;)
      ;
  }

  // wait for Transmit Holding Empty to be set in LSR.
  while ((ReadReg(LSR) & LSR_TX_IDLE) == 0)
    80000808:	10000737          	lui	a4,0x10000
  if (panicked)
    8000080c:	c391                	beqz	a5,80000810 <uartputc_sync+0x24>
    for (;;)
    8000080e:	a001                	j	8000080e <uartputc_sync+0x22>
  while ((ReadReg(LSR) & LSR_TX_IDLE) == 0)
    80000810:	00574783          	lbu	a5,5(a4) # 10000005 <_entry-0x6ffffffb>
    80000814:	0207f793          	andi	a5,a5,32
    80000818:	dfe5                	beqz	a5,80000810 <uartputc_sync+0x24>
    ;
  WriteReg(THR, c);
    8000081a:	0ff4f513          	zext.b	a0,s1
    8000081e:	100007b7          	lui	a5,0x10000
    80000822:	00a78023          	sb	a0,0(a5) # 10000000 <_entry-0x70000000>

  pop_off();
    80000826:	00000097          	auipc	ra,0x0
    8000082a:	404080e7          	jalr	1028(ra) # 80000c2a <pop_off>
}
    8000082e:	60e2                	ld	ra,24(sp)
    80000830:	6442                	ld	s0,16(sp)
    80000832:	64a2                	ld	s1,8(sp)
    80000834:	6105                	addi	sp,sp,32
    80000836:	8082                	ret

0000000080000838 <uartstart>:
// called from both the top- and bottom-half.
void uartstart()
{
  while (1)
  {
    if (uart_tx_w == uart_tx_r)
    80000838:	00008797          	auipc	a5,0x8
    8000083c:	0a07b783          	ld	a5,160(a5) # 800088d8 <uart_tx_r>
    80000840:	00008717          	auipc	a4,0x8
    80000844:	0a073703          	ld	a4,160(a4) # 800088e0 <uart_tx_w>
    80000848:	06f70a63          	beq	a4,a5,800008bc <uartstart+0x84>
{
    8000084c:	7139                	addi	sp,sp,-64
    8000084e:	fc06                	sd	ra,56(sp)
    80000850:	f822                	sd	s0,48(sp)
    80000852:	f426                	sd	s1,40(sp)
    80000854:	f04a                	sd	s2,32(sp)
    80000856:	ec4e                	sd	s3,24(sp)
    80000858:	e852                	sd	s4,16(sp)
    8000085a:	e456                	sd	s5,8(sp)
    8000085c:	0080                	addi	s0,sp,64
    {
      // transmit buffer is empty.
      return;
    }

    if ((ReadReg(LSR) & LSR_TX_IDLE) == 0)
    8000085e:	10000937          	lui	s2,0x10000
      // so we cannot give it another byte.
      // it will interrupt when it's ready for a new byte.
      return;
    }

    int c = uart_tx_buf[uart_tx_r % UART_TX_BUF_SIZE];
    80000862:	00010a17          	auipc	s4,0x10
    80000866:	2b6a0a13          	addi	s4,s4,694 # 80010b18 <uart_tx_lock>
    uart_tx_r += 1;
    8000086a:	00008497          	auipc	s1,0x8
    8000086e:	06e48493          	addi	s1,s1,110 # 800088d8 <uart_tx_r>
    if (uart_tx_w == uart_tx_r)
    80000872:	00008997          	auipc	s3,0x8
    80000876:	06e98993          	addi	s3,s3,110 # 800088e0 <uart_tx_w>
    if ((ReadReg(LSR) & LSR_TX_IDLE) == 0)
    8000087a:	00594703          	lbu	a4,5(s2) # 10000005 <_entry-0x6ffffffb>
    8000087e:	02077713          	andi	a4,a4,32
    80000882:	c705                	beqz	a4,800008aa <uartstart+0x72>
    int c = uart_tx_buf[uart_tx_r % UART_TX_BUF_SIZE];
    80000884:	01f7f713          	andi	a4,a5,31
    80000888:	9752                	add	a4,a4,s4
    8000088a:	01874a83          	lbu	s5,24(a4)
    uart_tx_r += 1;
    8000088e:	0785                	addi	a5,a5,1
    80000890:	e09c                	sd	a5,0(s1)

    // maybe uartputc() is waiting for space in the buffer.
    wakeup(&uart_tx_r);
    80000892:	8526                	mv	a0,s1
    80000894:	00002097          	auipc	ra,0x2
    80000898:	878080e7          	jalr	-1928(ra) # 8000210c <wakeup>

    WriteReg(THR, c);
    8000089c:	01590023          	sb	s5,0(s2)
    if (uart_tx_w == uart_tx_r)
    800008a0:	609c                	ld	a5,0(s1)
    800008a2:	0009b703          	ld	a4,0(s3)
    800008a6:	fcf71ae3          	bne	a4,a5,8000087a <uartstart+0x42>
  }
}
    800008aa:	70e2                	ld	ra,56(sp)
    800008ac:	7442                	ld	s0,48(sp)
    800008ae:	74a2                	ld	s1,40(sp)
    800008b0:	7902                	ld	s2,32(sp)
    800008b2:	69e2                	ld	s3,24(sp)
    800008b4:	6a42                	ld	s4,16(sp)
    800008b6:	6aa2                	ld	s5,8(sp)
    800008b8:	6121                	addi	sp,sp,64
    800008ba:	8082                	ret
    800008bc:	8082                	ret

00000000800008be <uartputc>:
{
    800008be:	7179                	addi	sp,sp,-48
    800008c0:	f406                	sd	ra,40(sp)
    800008c2:	f022                	sd	s0,32(sp)
    800008c4:	ec26                	sd	s1,24(sp)
    800008c6:	e84a                	sd	s2,16(sp)
    800008c8:	e44e                	sd	s3,8(sp)
    800008ca:	e052                	sd	s4,0(sp)
    800008cc:	1800                	addi	s0,sp,48
    800008ce:	8a2a                	mv	s4,a0
  acquire(&uart_tx_lock);
    800008d0:	00010517          	auipc	a0,0x10
    800008d4:	24850513          	addi	a0,a0,584 # 80010b18 <uart_tx_lock>
    800008d8:	00000097          	auipc	ra,0x0
    800008dc:	2fe080e7          	jalr	766(ra) # 80000bd6 <acquire>
  if (panicked)
    800008e0:	00008797          	auipc	a5,0x8
    800008e4:	ff07a783          	lw	a5,-16(a5) # 800088d0 <panicked>
    800008e8:	e7c9                	bnez	a5,80000972 <uartputc+0xb4>
  while (uart_tx_w == uart_tx_r + UART_TX_BUF_SIZE)
    800008ea:	00008717          	auipc	a4,0x8
    800008ee:	ff673703          	ld	a4,-10(a4) # 800088e0 <uart_tx_w>
    800008f2:	00008797          	auipc	a5,0x8
    800008f6:	fe67b783          	ld	a5,-26(a5) # 800088d8 <uart_tx_r>
    800008fa:	02078793          	addi	a5,a5,32
    sleep(&uart_tx_r, &uart_tx_lock);
    800008fe:	00010997          	auipc	s3,0x10
    80000902:	21a98993          	addi	s3,s3,538 # 80010b18 <uart_tx_lock>
    80000906:	00008497          	auipc	s1,0x8
    8000090a:	fd248493          	addi	s1,s1,-46 # 800088d8 <uart_tx_r>
  while (uart_tx_w == uart_tx_r + UART_TX_BUF_SIZE)
    8000090e:	00008917          	auipc	s2,0x8
    80000912:	fd290913          	addi	s2,s2,-46 # 800088e0 <uart_tx_w>
    80000916:	00e79f63          	bne	a5,a4,80000934 <uartputc+0x76>
    sleep(&uart_tx_r, &uart_tx_lock);
    8000091a:	85ce                	mv	a1,s3
    8000091c:	8526                	mv	a0,s1
    8000091e:	00001097          	auipc	ra,0x1
    80000922:	78a080e7          	jalr	1930(ra) # 800020a8 <sleep>
  while (uart_tx_w == uart_tx_r + UART_TX_BUF_SIZE)
    80000926:	00093703          	ld	a4,0(s2)
    8000092a:	609c                	ld	a5,0(s1)
    8000092c:	02078793          	addi	a5,a5,32
    80000930:	fee785e3          	beq	a5,a4,8000091a <uartputc+0x5c>
  uart_tx_buf[uart_tx_w % UART_TX_BUF_SIZE] = c;
    80000934:	00010497          	auipc	s1,0x10
    80000938:	1e448493          	addi	s1,s1,484 # 80010b18 <uart_tx_lock>
    8000093c:	01f77793          	andi	a5,a4,31
    80000940:	97a6                	add	a5,a5,s1
    80000942:	01478c23          	sb	s4,24(a5)
  uart_tx_w += 1;
    80000946:	0705                	addi	a4,a4,1
    80000948:	00008797          	auipc	a5,0x8
    8000094c:	f8e7bc23          	sd	a4,-104(a5) # 800088e0 <uart_tx_w>
  uartstart();
    80000950:	00000097          	auipc	ra,0x0
    80000954:	ee8080e7          	jalr	-280(ra) # 80000838 <uartstart>
  release(&uart_tx_lock);
    80000958:	8526                	mv	a0,s1
    8000095a:	00000097          	auipc	ra,0x0
    8000095e:	330080e7          	jalr	816(ra) # 80000c8a <release>
}
    80000962:	70a2                	ld	ra,40(sp)
    80000964:	7402                	ld	s0,32(sp)
    80000966:	64e2                	ld	s1,24(sp)
    80000968:	6942                	ld	s2,16(sp)
    8000096a:	69a2                	ld	s3,8(sp)
    8000096c:	6a02                	ld	s4,0(sp)
    8000096e:	6145                	addi	sp,sp,48
    80000970:	8082                	ret
    for (;;)
    80000972:	a001                	j	80000972 <uartputc+0xb4>

0000000080000974 <uartgetc>:

// read one input character from the UART.
// return -1 if none is waiting.
int uartgetc(void)
{
    80000974:	1141                	addi	sp,sp,-16
    80000976:	e422                	sd	s0,8(sp)
    80000978:	0800                	addi	s0,sp,16
  if (ReadReg(LSR) & 0x01)
    8000097a:	100007b7          	lui	a5,0x10000
    8000097e:	0057c783          	lbu	a5,5(a5) # 10000005 <_entry-0x6ffffffb>
    80000982:	8b85                	andi	a5,a5,1
    80000984:	cb81                	beqz	a5,80000994 <uartgetc+0x20>
  {
    // input data is ready.
    return ReadReg(RHR);
    80000986:	100007b7          	lui	a5,0x10000
    8000098a:	0007c503          	lbu	a0,0(a5) # 10000000 <_entry-0x70000000>
  }
  else
  {
    return -1;
  }
}
    8000098e:	6422                	ld	s0,8(sp)
    80000990:	0141                	addi	sp,sp,16
    80000992:	8082                	ret
    return -1;
    80000994:	557d                	li	a0,-1
    80000996:	bfe5                	j	8000098e <uartgetc+0x1a>

0000000080000998 <uartintr>:

// handle a uart interrupt, raised because input has
// arrived, or the uart is ready for more output, or
// both. called from devintr().
void uartintr(void)
{
    80000998:	1101                	addi	sp,sp,-32
    8000099a:	ec06                	sd	ra,24(sp)
    8000099c:	e822                	sd	s0,16(sp)
    8000099e:	e426                	sd	s1,8(sp)
    800009a0:	1000                	addi	s0,sp,32
  // read and process incoming characters.
  while (1)
  {
    int c = uartgetc();
    if (c == -1)
    800009a2:	54fd                	li	s1,-1
    800009a4:	a029                	j	800009ae <uartintr+0x16>
      break;
    consoleintr(c);
    800009a6:	00000097          	auipc	ra,0x0
    800009aa:	918080e7          	jalr	-1768(ra) # 800002be <consoleintr>
    int c = uartgetc();
    800009ae:	00000097          	auipc	ra,0x0
    800009b2:	fc6080e7          	jalr	-58(ra) # 80000974 <uartgetc>
    if (c == -1)
    800009b6:	fe9518e3          	bne	a0,s1,800009a6 <uartintr+0xe>
  }

  // send buffered characters.
  acquire(&uart_tx_lock);
    800009ba:	00010497          	auipc	s1,0x10
    800009be:	15e48493          	addi	s1,s1,350 # 80010b18 <uart_tx_lock>
    800009c2:	8526                	mv	a0,s1
    800009c4:	00000097          	auipc	ra,0x0
    800009c8:	212080e7          	jalr	530(ra) # 80000bd6 <acquire>
  uartstart();
    800009cc:	00000097          	auipc	ra,0x0
    800009d0:	e6c080e7          	jalr	-404(ra) # 80000838 <uartstart>
  release(&uart_tx_lock);
    800009d4:	8526                	mv	a0,s1
    800009d6:	00000097          	auipc	ra,0x0
    800009da:	2b4080e7          	jalr	692(ra) # 80000c8a <release>
}
    800009de:	60e2                	ld	ra,24(sp)
    800009e0:	6442                	ld	s0,16(sp)
    800009e2:	64a2                	ld	s1,8(sp)
    800009e4:	6105                	addi	sp,sp,32
    800009e6:	8082                	ret

00000000800009e8 <kfree>:
// Free the page of physical memory pointed at by pa,
// which normally should have been returned by a
// call to kalloc().  (The exception is when
// initializing the allocator; see kinit above.)
void kfree(void *pa)
{
    800009e8:	1101                	addi	sp,sp,-32
    800009ea:	ec06                	sd	ra,24(sp)
    800009ec:	e822                	sd	s0,16(sp)
    800009ee:	e426                	sd	s1,8(sp)
    800009f0:	e04a                	sd	s2,0(sp)
    800009f2:	1000                	addi	s0,sp,32
  struct run *r;

  if (((uint64)pa % PGSIZE) != 0 || (char *)pa < end || (uint64)pa >= PHYSTOP)
    800009f4:	03451793          	slli	a5,a0,0x34
    800009f8:	ebb9                	bnez	a5,80000a4e <kfree+0x66>
    800009fa:	84aa                	mv	s1,a0
    800009fc:	00023797          	auipc	a5,0x23
    80000a00:	dac78793          	addi	a5,a5,-596 # 800237a8 <end>
    80000a04:	04f56563          	bltu	a0,a5,80000a4e <kfree+0x66>
    80000a08:	47c5                	li	a5,17
    80000a0a:	07ee                	slli	a5,a5,0x1b
    80000a0c:	04f57163          	bgeu	a0,a5,80000a4e <kfree+0x66>
    panic("kfree");

  // Fill with junk to catch dangling refs.
  memset(pa, 1, PGSIZE);
    80000a10:	6605                	lui	a2,0x1
    80000a12:	4585                	li	a1,1
    80000a14:	00000097          	auipc	ra,0x0
    80000a18:	2be080e7          	jalr	702(ra) # 80000cd2 <memset>

  r = (struct run *)pa;

  acquire(&kmem.lock);
    80000a1c:	00010917          	auipc	s2,0x10
    80000a20:	13490913          	addi	s2,s2,308 # 80010b50 <kmem>
    80000a24:	854a                	mv	a0,s2
    80000a26:	00000097          	auipc	ra,0x0
    80000a2a:	1b0080e7          	jalr	432(ra) # 80000bd6 <acquire>
  r->next = kmem.freelist;
    80000a2e:	01893783          	ld	a5,24(s2)
    80000a32:	e09c                	sd	a5,0(s1)
  kmem.freelist = r;
    80000a34:	00993c23          	sd	s1,24(s2)
  release(&kmem.lock);
    80000a38:	854a                	mv	a0,s2
    80000a3a:	00000097          	auipc	ra,0x0
    80000a3e:	250080e7          	jalr	592(ra) # 80000c8a <release>
}
    80000a42:	60e2                	ld	ra,24(sp)
    80000a44:	6442                	ld	s0,16(sp)
    80000a46:	64a2                	ld	s1,8(sp)
    80000a48:	6902                	ld	s2,0(sp)
    80000a4a:	6105                	addi	sp,sp,32
    80000a4c:	8082                	ret
    panic("kfree");
    80000a4e:	00007517          	auipc	a0,0x7
    80000a52:	61250513          	addi	a0,a0,1554 # 80008060 <digits+0x20>
    80000a56:	00000097          	auipc	ra,0x0
    80000a5a:	aea080e7          	jalr	-1302(ra) # 80000540 <panic>

0000000080000a5e <freerange>:
{
    80000a5e:	7179                	addi	sp,sp,-48
    80000a60:	f406                	sd	ra,40(sp)
    80000a62:	f022                	sd	s0,32(sp)
    80000a64:	ec26                	sd	s1,24(sp)
    80000a66:	e84a                	sd	s2,16(sp)
    80000a68:	e44e                	sd	s3,8(sp)
    80000a6a:	e052                	sd	s4,0(sp)
    80000a6c:	1800                	addi	s0,sp,48
  p = (char *)PGROUNDUP((uint64)pa_start);
    80000a6e:	6785                	lui	a5,0x1
    80000a70:	fff78713          	addi	a4,a5,-1 # fff <_entry-0x7ffff001>
    80000a74:	00e504b3          	add	s1,a0,a4
    80000a78:	777d                	lui	a4,0xfffff
    80000a7a:	8cf9                	and	s1,s1,a4
  for (; p + PGSIZE <= (char *)pa_end; p += PGSIZE)
    80000a7c:	94be                	add	s1,s1,a5
    80000a7e:	0095ee63          	bltu	a1,s1,80000a9a <freerange+0x3c>
    80000a82:	892e                	mv	s2,a1
    kfree(p);
    80000a84:	7a7d                	lui	s4,0xfffff
  for (; p + PGSIZE <= (char *)pa_end; p += PGSIZE)
    80000a86:	6985                	lui	s3,0x1
    kfree(p);
    80000a88:	01448533          	add	a0,s1,s4
    80000a8c:	00000097          	auipc	ra,0x0
    80000a90:	f5c080e7          	jalr	-164(ra) # 800009e8 <kfree>
  for (; p + PGSIZE <= (char *)pa_end; p += PGSIZE)
    80000a94:	94ce                	add	s1,s1,s3
    80000a96:	fe9979e3          	bgeu	s2,s1,80000a88 <freerange+0x2a>
}
    80000a9a:	70a2                	ld	ra,40(sp)
    80000a9c:	7402                	ld	s0,32(sp)
    80000a9e:	64e2                	ld	s1,24(sp)
    80000aa0:	6942                	ld	s2,16(sp)
    80000aa2:	69a2                	ld	s3,8(sp)
    80000aa4:	6a02                	ld	s4,0(sp)
    80000aa6:	6145                	addi	sp,sp,48
    80000aa8:	8082                	ret

0000000080000aaa <kinit>:
{
    80000aaa:	1141                	addi	sp,sp,-16
    80000aac:	e406                	sd	ra,8(sp)
    80000aae:	e022                	sd	s0,0(sp)
    80000ab0:	0800                	addi	s0,sp,16
  initlock(&kmem.lock, "kmem");
    80000ab2:	00007597          	auipc	a1,0x7
    80000ab6:	5b658593          	addi	a1,a1,1462 # 80008068 <digits+0x28>
    80000aba:	00010517          	auipc	a0,0x10
    80000abe:	09650513          	addi	a0,a0,150 # 80010b50 <kmem>
    80000ac2:	00000097          	auipc	ra,0x0
    80000ac6:	084080e7          	jalr	132(ra) # 80000b46 <initlock>
  freerange(end, (void *)PHYSTOP);
    80000aca:	45c5                	li	a1,17
    80000acc:	05ee                	slli	a1,a1,0x1b
    80000ace:	00023517          	auipc	a0,0x23
    80000ad2:	cda50513          	addi	a0,a0,-806 # 800237a8 <end>
    80000ad6:	00000097          	auipc	ra,0x0
    80000ada:	f88080e7          	jalr	-120(ra) # 80000a5e <freerange>
}
    80000ade:	60a2                	ld	ra,8(sp)
    80000ae0:	6402                	ld	s0,0(sp)
    80000ae2:	0141                	addi	sp,sp,16
    80000ae4:	8082                	ret

0000000080000ae6 <kalloc>:
// Allocate one 4096-byte page of physical memory.
// Returns a pointer that the kernel can use.
// Returns 0 if the memory cannot be allocated.
void *
kalloc(void)
{
    80000ae6:	1101                	addi	sp,sp,-32
    80000ae8:	ec06                	sd	ra,24(sp)
    80000aea:	e822                	sd	s0,16(sp)
    80000aec:	e426                	sd	s1,8(sp)
    80000aee:	1000                	addi	s0,sp,32
  struct run *r;

  acquire(&kmem.lock);
    80000af0:	00010497          	auipc	s1,0x10
    80000af4:	06048493          	addi	s1,s1,96 # 80010b50 <kmem>
    80000af8:	8526                	mv	a0,s1
    80000afa:	00000097          	auipc	ra,0x0
    80000afe:	0dc080e7          	jalr	220(ra) # 80000bd6 <acquire>
  r = kmem.freelist;
    80000b02:	6c84                	ld	s1,24(s1)
  if (r)
    80000b04:	c885                	beqz	s1,80000b34 <kalloc+0x4e>
    kmem.freelist = r->next;
    80000b06:	609c                	ld	a5,0(s1)
    80000b08:	00010517          	auipc	a0,0x10
    80000b0c:	04850513          	addi	a0,a0,72 # 80010b50 <kmem>
    80000b10:	ed1c                	sd	a5,24(a0)
  release(&kmem.lock);
    80000b12:	00000097          	auipc	ra,0x0
    80000b16:	178080e7          	jalr	376(ra) # 80000c8a <release>

  if (r)
    memset((char *)r, 5, PGSIZE); // fill with junk
    80000b1a:	6605                	lui	a2,0x1
    80000b1c:	4595                	li	a1,5
    80000b1e:	8526                	mv	a0,s1
    80000b20:	00000097          	auipc	ra,0x0
    80000b24:	1b2080e7          	jalr	434(ra) # 80000cd2 <memset>
  return (void *)r;
}
    80000b28:	8526                	mv	a0,s1
    80000b2a:	60e2                	ld	ra,24(sp)
    80000b2c:	6442                	ld	s0,16(sp)
    80000b2e:	64a2                	ld	s1,8(sp)
    80000b30:	6105                	addi	sp,sp,32
    80000b32:	8082                	ret
  release(&kmem.lock);
    80000b34:	00010517          	auipc	a0,0x10
    80000b38:	01c50513          	addi	a0,a0,28 # 80010b50 <kmem>
    80000b3c:	00000097          	auipc	ra,0x0
    80000b40:	14e080e7          	jalr	334(ra) # 80000c8a <release>
  if (r)
    80000b44:	b7d5                	j	80000b28 <kalloc+0x42>

0000000080000b46 <initlock>:
#include "riscv.h"
#include "proc.h"
#include "defs.h"

void initlock(struct spinlock *lk, char *name)
{
    80000b46:	1141                	addi	sp,sp,-16
    80000b48:	e422                	sd	s0,8(sp)
    80000b4a:	0800                	addi	s0,sp,16
  lk->name = name;
    80000b4c:	e50c                	sd	a1,8(a0)
  lk->locked = 0;
    80000b4e:	00052023          	sw	zero,0(a0)
  lk->cpu = 0;
    80000b52:	00053823          	sd	zero,16(a0)
}
    80000b56:	6422                	ld	s0,8(sp)
    80000b58:	0141                	addi	sp,sp,16
    80000b5a:	8082                	ret

0000000080000b5c <holding>:
// Check whether this cpu is holding the lock.
// Interrupts must be off.
int holding(struct spinlock *lk)
{
  int r;
  r = (lk->locked && lk->cpu == mycpu());
    80000b5c:	411c                	lw	a5,0(a0)
    80000b5e:	e399                	bnez	a5,80000b64 <holding+0x8>
    80000b60:	4501                	li	a0,0
  return r;
}
    80000b62:	8082                	ret
{
    80000b64:	1101                	addi	sp,sp,-32
    80000b66:	ec06                	sd	ra,24(sp)
    80000b68:	e822                	sd	s0,16(sp)
    80000b6a:	e426                	sd	s1,8(sp)
    80000b6c:	1000                	addi	s0,sp,32
  r = (lk->locked && lk->cpu == mycpu());
    80000b6e:	6904                	ld	s1,16(a0)
    80000b70:	00001097          	auipc	ra,0x1
    80000b74:	e20080e7          	jalr	-480(ra) # 80001990 <mycpu>
    80000b78:	40a48533          	sub	a0,s1,a0
    80000b7c:	00153513          	seqz	a0,a0
}
    80000b80:	60e2                	ld	ra,24(sp)
    80000b82:	6442                	ld	s0,16(sp)
    80000b84:	64a2                	ld	s1,8(sp)
    80000b86:	6105                	addi	sp,sp,32
    80000b88:	8082                	ret

0000000080000b8a <push_off>:
// push_off/pop_off are like intr_off()/intr_on() except that they are matched:
// it takes two pop_off()s to undo two push_off()s.  Also, if interrupts
// are initially off, then push_off, pop_off leaves them off.

void push_off(void)
{
    80000b8a:	1101                	addi	sp,sp,-32
    80000b8c:	ec06                	sd	ra,24(sp)
    80000b8e:	e822                	sd	s0,16(sp)
    80000b90:	e426                	sd	s1,8(sp)
    80000b92:	1000                	addi	s0,sp,32
  asm volatile("csrr %0, sstatus"
    80000b94:	100024f3          	csrr	s1,sstatus
    80000b98:	100027f3          	csrr	a5,sstatus
  w_sstatus(r_sstatus() & ~SSTATUS_SIE);
    80000b9c:	9bf5                	andi	a5,a5,-3
  asm volatile("csrw sstatus, %0"
    80000b9e:	10079073          	csrw	sstatus,a5
  int old = intr_get();

  intr_off();
  if (mycpu()->noff == 0)
    80000ba2:	00001097          	auipc	ra,0x1
    80000ba6:	dee080e7          	jalr	-530(ra) # 80001990 <mycpu>
    80000baa:	5d3c                	lw	a5,120(a0)
    80000bac:	cf89                	beqz	a5,80000bc6 <push_off+0x3c>
    mycpu()->intena = old;
  mycpu()->noff += 1;
    80000bae:	00001097          	auipc	ra,0x1
    80000bb2:	de2080e7          	jalr	-542(ra) # 80001990 <mycpu>
    80000bb6:	5d3c                	lw	a5,120(a0)
    80000bb8:	2785                	addiw	a5,a5,1
    80000bba:	dd3c                	sw	a5,120(a0)
}
    80000bbc:	60e2                	ld	ra,24(sp)
    80000bbe:	6442                	ld	s0,16(sp)
    80000bc0:	64a2                	ld	s1,8(sp)
    80000bc2:	6105                	addi	sp,sp,32
    80000bc4:	8082                	ret
    mycpu()->intena = old;
    80000bc6:	00001097          	auipc	ra,0x1
    80000bca:	dca080e7          	jalr	-566(ra) # 80001990 <mycpu>
  return (x & SSTATUS_SIE) != 0;
    80000bce:	8085                	srli	s1,s1,0x1
    80000bd0:	8885                	andi	s1,s1,1
    80000bd2:	dd64                	sw	s1,124(a0)
    80000bd4:	bfe9                	j	80000bae <push_off+0x24>

0000000080000bd6 <acquire>:
{
    80000bd6:	1101                	addi	sp,sp,-32
    80000bd8:	ec06                	sd	ra,24(sp)
    80000bda:	e822                	sd	s0,16(sp)
    80000bdc:	e426                	sd	s1,8(sp)
    80000bde:	1000                	addi	s0,sp,32
    80000be0:	84aa                	mv	s1,a0
  push_off(); // disable interrupts to avoid deadlock.
    80000be2:	00000097          	auipc	ra,0x0
    80000be6:	fa8080e7          	jalr	-88(ra) # 80000b8a <push_off>
  if (holding(lk))
    80000bea:	8526                	mv	a0,s1
    80000bec:	00000097          	auipc	ra,0x0
    80000bf0:	f70080e7          	jalr	-144(ra) # 80000b5c <holding>
  while (__sync_lock_test_and_set(&lk->locked, 1) != 0)
    80000bf4:	4705                	li	a4,1
  if (holding(lk))
    80000bf6:	e115                	bnez	a0,80000c1a <acquire+0x44>
  while (__sync_lock_test_and_set(&lk->locked, 1) != 0)
    80000bf8:	87ba                	mv	a5,a4
    80000bfa:	0cf4a7af          	amoswap.w.aq	a5,a5,(s1)
    80000bfe:	2781                	sext.w	a5,a5
    80000c00:	ffe5                	bnez	a5,80000bf8 <acquire+0x22>
  __sync_synchronize();
    80000c02:	0ff0000f          	fence
  lk->cpu = mycpu();
    80000c06:	00001097          	auipc	ra,0x1
    80000c0a:	d8a080e7          	jalr	-630(ra) # 80001990 <mycpu>
    80000c0e:	e888                	sd	a0,16(s1)
}
    80000c10:	60e2                	ld	ra,24(sp)
    80000c12:	6442                	ld	s0,16(sp)
    80000c14:	64a2                	ld	s1,8(sp)
    80000c16:	6105                	addi	sp,sp,32
    80000c18:	8082                	ret
    panic("acquire");
    80000c1a:	00007517          	auipc	a0,0x7
    80000c1e:	45650513          	addi	a0,a0,1110 # 80008070 <digits+0x30>
    80000c22:	00000097          	auipc	ra,0x0
    80000c26:	91e080e7          	jalr	-1762(ra) # 80000540 <panic>

0000000080000c2a <pop_off>:

void pop_off(void)
{
    80000c2a:	1141                	addi	sp,sp,-16
    80000c2c:	e406                	sd	ra,8(sp)
    80000c2e:	e022                	sd	s0,0(sp)
    80000c30:	0800                	addi	s0,sp,16
  struct cpu *c = mycpu();
    80000c32:	00001097          	auipc	ra,0x1
    80000c36:	d5e080e7          	jalr	-674(ra) # 80001990 <mycpu>
  asm volatile("csrr %0, sstatus"
    80000c3a:	100027f3          	csrr	a5,sstatus
  return (x & SSTATUS_SIE) != 0;
    80000c3e:	8b89                	andi	a5,a5,2
  if (intr_get())
    80000c40:	e78d                	bnez	a5,80000c6a <pop_off+0x40>
    panic("pop_off - interruptible");
  if (c->noff < 1)
    80000c42:	5d3c                	lw	a5,120(a0)
    80000c44:	02f05b63          	blez	a5,80000c7a <pop_off+0x50>
    panic("pop_off");
  c->noff -= 1;
    80000c48:	37fd                	addiw	a5,a5,-1
    80000c4a:	0007871b          	sext.w	a4,a5
    80000c4e:	dd3c                	sw	a5,120(a0)
  if (c->noff == 0 && c->intena)
    80000c50:	eb09                	bnez	a4,80000c62 <pop_off+0x38>
    80000c52:	5d7c                	lw	a5,124(a0)
    80000c54:	c799                	beqz	a5,80000c62 <pop_off+0x38>
  asm volatile("csrr %0, sstatus"
    80000c56:	100027f3          	csrr	a5,sstatus
  w_sstatus(r_sstatus() | SSTATUS_SIE);
    80000c5a:	0027e793          	ori	a5,a5,2
  asm volatile("csrw sstatus, %0"
    80000c5e:	10079073          	csrw	sstatus,a5
    intr_on();
}
    80000c62:	60a2                	ld	ra,8(sp)
    80000c64:	6402                	ld	s0,0(sp)
    80000c66:	0141                	addi	sp,sp,16
    80000c68:	8082                	ret
    panic("pop_off - interruptible");
    80000c6a:	00007517          	auipc	a0,0x7
    80000c6e:	40e50513          	addi	a0,a0,1038 # 80008078 <digits+0x38>
    80000c72:	00000097          	auipc	ra,0x0
    80000c76:	8ce080e7          	jalr	-1842(ra) # 80000540 <panic>
    panic("pop_off");
    80000c7a:	00007517          	auipc	a0,0x7
    80000c7e:	41650513          	addi	a0,a0,1046 # 80008090 <digits+0x50>
    80000c82:	00000097          	auipc	ra,0x0
    80000c86:	8be080e7          	jalr	-1858(ra) # 80000540 <panic>

0000000080000c8a <release>:
{
    80000c8a:	1101                	addi	sp,sp,-32
    80000c8c:	ec06                	sd	ra,24(sp)
    80000c8e:	e822                	sd	s0,16(sp)
    80000c90:	e426                	sd	s1,8(sp)
    80000c92:	1000                	addi	s0,sp,32
    80000c94:	84aa                	mv	s1,a0
  if (!holding(lk))
    80000c96:	00000097          	auipc	ra,0x0
    80000c9a:	ec6080e7          	jalr	-314(ra) # 80000b5c <holding>
    80000c9e:	c115                	beqz	a0,80000cc2 <release+0x38>
  lk->cpu = 0;
    80000ca0:	0004b823          	sd	zero,16(s1)
  __sync_synchronize();
    80000ca4:	0ff0000f          	fence
  __sync_lock_release(&lk->locked);
    80000ca8:	0f50000f          	fence	iorw,ow
    80000cac:	0804a02f          	amoswap.w	zero,zero,(s1)
  pop_off();
    80000cb0:	00000097          	auipc	ra,0x0
    80000cb4:	f7a080e7          	jalr	-134(ra) # 80000c2a <pop_off>
}
    80000cb8:	60e2                	ld	ra,24(sp)
    80000cba:	6442                	ld	s0,16(sp)
    80000cbc:	64a2                	ld	s1,8(sp)
    80000cbe:	6105                	addi	sp,sp,32
    80000cc0:	8082                	ret
    panic("release");
    80000cc2:	00007517          	auipc	a0,0x7
    80000cc6:	3d650513          	addi	a0,a0,982 # 80008098 <digits+0x58>
    80000cca:	00000097          	auipc	ra,0x0
    80000cce:	876080e7          	jalr	-1930(ra) # 80000540 <panic>

0000000080000cd2 <memset>:
#include "types.h"

void *
memset(void *dst, int c, uint n)
{
    80000cd2:	1141                	addi	sp,sp,-16
    80000cd4:	e422                	sd	s0,8(sp)
    80000cd6:	0800                	addi	s0,sp,16
  char *cdst = (char *)dst;
  int i;
  for (i = 0; i < n; i++)
    80000cd8:	ca19                	beqz	a2,80000cee <memset+0x1c>
    80000cda:	87aa                	mv	a5,a0
    80000cdc:	1602                	slli	a2,a2,0x20
    80000cde:	9201                	srli	a2,a2,0x20
    80000ce0:	00a60733          	add	a4,a2,a0
  {
    cdst[i] = c;
    80000ce4:	00b78023          	sb	a1,0(a5)
  for (i = 0; i < n; i++)
    80000ce8:	0785                	addi	a5,a5,1
    80000cea:	fee79de3          	bne	a5,a4,80000ce4 <memset+0x12>
  }
  return dst;
}
    80000cee:	6422                	ld	s0,8(sp)
    80000cf0:	0141                	addi	sp,sp,16
    80000cf2:	8082                	ret

0000000080000cf4 <memcmp>:

int memcmp(const void *v1, const void *v2, uint n)
{
    80000cf4:	1141                	addi	sp,sp,-16
    80000cf6:	e422                	sd	s0,8(sp)
    80000cf8:	0800                	addi	s0,sp,16
  const uchar *s1, *s2;

  s1 = v1;
  s2 = v2;
  while (n-- > 0)
    80000cfa:	ca05                	beqz	a2,80000d2a <memcmp+0x36>
    80000cfc:	fff6069b          	addiw	a3,a2,-1 # fff <_entry-0x7ffff001>
    80000d00:	1682                	slli	a3,a3,0x20
    80000d02:	9281                	srli	a3,a3,0x20
    80000d04:	0685                	addi	a3,a3,1
    80000d06:	96aa                	add	a3,a3,a0
  {
    if (*s1 != *s2)
    80000d08:	00054783          	lbu	a5,0(a0)
    80000d0c:	0005c703          	lbu	a4,0(a1)
    80000d10:	00e79863          	bne	a5,a4,80000d20 <memcmp+0x2c>
      return *s1 - *s2;
    s1++, s2++;
    80000d14:	0505                	addi	a0,a0,1
    80000d16:	0585                	addi	a1,a1,1
  while (n-- > 0)
    80000d18:	fed518e3          	bne	a0,a3,80000d08 <memcmp+0x14>
  }

  return 0;
    80000d1c:	4501                	li	a0,0
    80000d1e:	a019                	j	80000d24 <memcmp+0x30>
      return *s1 - *s2;
    80000d20:	40e7853b          	subw	a0,a5,a4
}
    80000d24:	6422                	ld	s0,8(sp)
    80000d26:	0141                	addi	sp,sp,16
    80000d28:	8082                	ret
  return 0;
    80000d2a:	4501                	li	a0,0
    80000d2c:	bfe5                	j	80000d24 <memcmp+0x30>

0000000080000d2e <memmove>:

void *
memmove(void *dst, const void *src, uint n)
{
    80000d2e:	1141                	addi	sp,sp,-16
    80000d30:	e422                	sd	s0,8(sp)
    80000d32:	0800                	addi	s0,sp,16
  const char *s;
  char *d;

  if (n == 0)
    80000d34:	c205                	beqz	a2,80000d54 <memmove+0x26>
    return dst;

  s = src;
  d = dst;
  if (s < d && s + n > d)
    80000d36:	02a5e263          	bltu	a1,a0,80000d5a <memmove+0x2c>
    d += n;
    while (n-- > 0)
      *--d = *--s;
  }
  else
    while (n-- > 0)
    80000d3a:	1602                	slli	a2,a2,0x20
    80000d3c:	9201                	srli	a2,a2,0x20
    80000d3e:	00c587b3          	add	a5,a1,a2
{
    80000d42:	872a                	mv	a4,a0
      *d++ = *s++;
    80000d44:	0585                	addi	a1,a1,1
    80000d46:	0705                	addi	a4,a4,1 # fffffffffffff001 <end+0xffffffff7ffdb859>
    80000d48:	fff5c683          	lbu	a3,-1(a1)
    80000d4c:	fed70fa3          	sb	a3,-1(a4)
    while (n-- > 0)
    80000d50:	fef59ae3          	bne	a1,a5,80000d44 <memmove+0x16>

  return dst;
}
    80000d54:	6422                	ld	s0,8(sp)
    80000d56:	0141                	addi	sp,sp,16
    80000d58:	8082                	ret
  if (s < d && s + n > d)
    80000d5a:	02061693          	slli	a3,a2,0x20
    80000d5e:	9281                	srli	a3,a3,0x20
    80000d60:	00d58733          	add	a4,a1,a3
    80000d64:	fce57be3          	bgeu	a0,a4,80000d3a <memmove+0xc>
    d += n;
    80000d68:	96aa                	add	a3,a3,a0
    while (n-- > 0)
    80000d6a:	fff6079b          	addiw	a5,a2,-1
    80000d6e:	1782                	slli	a5,a5,0x20
    80000d70:	9381                	srli	a5,a5,0x20
    80000d72:	fff7c793          	not	a5,a5
    80000d76:	97ba                	add	a5,a5,a4
      *--d = *--s;
    80000d78:	177d                	addi	a4,a4,-1
    80000d7a:	16fd                	addi	a3,a3,-1
    80000d7c:	00074603          	lbu	a2,0(a4)
    80000d80:	00c68023          	sb	a2,0(a3)
    while (n-- > 0)
    80000d84:	fee79ae3          	bne	a5,a4,80000d78 <memmove+0x4a>
    80000d88:	b7f1                	j	80000d54 <memmove+0x26>

0000000080000d8a <memcpy>:

// memcpy exists to placate GCC.  Use memmove.
void *
memcpy(void *dst, const void *src, uint n)
{
    80000d8a:	1141                	addi	sp,sp,-16
    80000d8c:	e406                	sd	ra,8(sp)
    80000d8e:	e022                	sd	s0,0(sp)
    80000d90:	0800                	addi	s0,sp,16
  return memmove(dst, src, n);
    80000d92:	00000097          	auipc	ra,0x0
    80000d96:	f9c080e7          	jalr	-100(ra) # 80000d2e <memmove>
}
    80000d9a:	60a2                	ld	ra,8(sp)
    80000d9c:	6402                	ld	s0,0(sp)
    80000d9e:	0141                	addi	sp,sp,16
    80000da0:	8082                	ret

0000000080000da2 <strncmp>:

int strncmp(const char *p, const char *q, uint n)
{
    80000da2:	1141                	addi	sp,sp,-16
    80000da4:	e422                	sd	s0,8(sp)
    80000da6:	0800                	addi	s0,sp,16
  while (n > 0 && *p && *p == *q)
    80000da8:	ce11                	beqz	a2,80000dc4 <strncmp+0x22>
    80000daa:	00054783          	lbu	a5,0(a0)
    80000dae:	cf89                	beqz	a5,80000dc8 <strncmp+0x26>
    80000db0:	0005c703          	lbu	a4,0(a1)
    80000db4:	00f71a63          	bne	a4,a5,80000dc8 <strncmp+0x26>
    n--, p++, q++;
    80000db8:	367d                	addiw	a2,a2,-1
    80000dba:	0505                	addi	a0,a0,1
    80000dbc:	0585                	addi	a1,a1,1
  while (n > 0 && *p && *p == *q)
    80000dbe:	f675                	bnez	a2,80000daa <strncmp+0x8>
  if (n == 0)
    return 0;
    80000dc0:	4501                	li	a0,0
    80000dc2:	a809                	j	80000dd4 <strncmp+0x32>
    80000dc4:	4501                	li	a0,0
    80000dc6:	a039                	j	80000dd4 <strncmp+0x32>
  if (n == 0)
    80000dc8:	ca09                	beqz	a2,80000dda <strncmp+0x38>
  return (uchar)*p - (uchar)*q;
    80000dca:	00054503          	lbu	a0,0(a0)
    80000dce:	0005c783          	lbu	a5,0(a1)
    80000dd2:	9d1d                	subw	a0,a0,a5
}
    80000dd4:	6422                	ld	s0,8(sp)
    80000dd6:	0141                	addi	sp,sp,16
    80000dd8:	8082                	ret
    return 0;
    80000dda:	4501                	li	a0,0
    80000ddc:	bfe5                	j	80000dd4 <strncmp+0x32>

0000000080000dde <strncpy>:

char *
strncpy(char *s, const char *t, int n)
{
    80000dde:	1141                	addi	sp,sp,-16
    80000de0:	e422                	sd	s0,8(sp)
    80000de2:	0800                	addi	s0,sp,16
  char *os;

  os = s;
  while (n-- > 0 && (*s++ = *t++) != 0)
    80000de4:	872a                	mv	a4,a0
    80000de6:	8832                	mv	a6,a2
    80000de8:	367d                	addiw	a2,a2,-1
    80000dea:	01005963          	blez	a6,80000dfc <strncpy+0x1e>
    80000dee:	0705                	addi	a4,a4,1
    80000df0:	0005c783          	lbu	a5,0(a1)
    80000df4:	fef70fa3          	sb	a5,-1(a4)
    80000df8:	0585                	addi	a1,a1,1
    80000dfa:	f7f5                	bnez	a5,80000de6 <strncpy+0x8>
    ;
  while (n-- > 0)
    80000dfc:	86ba                	mv	a3,a4
    80000dfe:	00c05c63          	blez	a2,80000e16 <strncpy+0x38>
    *s++ = 0;
    80000e02:	0685                	addi	a3,a3,1
    80000e04:	fe068fa3          	sb	zero,-1(a3)
  while (n-- > 0)
    80000e08:	40d707bb          	subw	a5,a4,a3
    80000e0c:	37fd                	addiw	a5,a5,-1
    80000e0e:	010787bb          	addw	a5,a5,a6
    80000e12:	fef048e3          	bgtz	a5,80000e02 <strncpy+0x24>
  return os;
}
    80000e16:	6422                	ld	s0,8(sp)
    80000e18:	0141                	addi	sp,sp,16
    80000e1a:	8082                	ret

0000000080000e1c <safestrcpy>:

// Like strncpy but guaranteed to NUL-terminate.
char *
safestrcpy(char *s, const char *t, int n)
{
    80000e1c:	1141                	addi	sp,sp,-16
    80000e1e:	e422                	sd	s0,8(sp)
    80000e20:	0800                	addi	s0,sp,16
  char *os;

  os = s;
  if (n <= 0)
    80000e22:	02c05363          	blez	a2,80000e48 <safestrcpy+0x2c>
    80000e26:	fff6069b          	addiw	a3,a2,-1
    80000e2a:	1682                	slli	a3,a3,0x20
    80000e2c:	9281                	srli	a3,a3,0x20
    80000e2e:	96ae                	add	a3,a3,a1
    80000e30:	87aa                	mv	a5,a0
    return os;
  while (--n > 0 && (*s++ = *t++) != 0)
    80000e32:	00d58963          	beq	a1,a3,80000e44 <safestrcpy+0x28>
    80000e36:	0585                	addi	a1,a1,1
    80000e38:	0785                	addi	a5,a5,1
    80000e3a:	fff5c703          	lbu	a4,-1(a1)
    80000e3e:	fee78fa3          	sb	a4,-1(a5)
    80000e42:	fb65                	bnez	a4,80000e32 <safestrcpy+0x16>
    ;
  *s = 0;
    80000e44:	00078023          	sb	zero,0(a5)
  return os;
}
    80000e48:	6422                	ld	s0,8(sp)
    80000e4a:	0141                	addi	sp,sp,16
    80000e4c:	8082                	ret

0000000080000e4e <strlen>:

int strlen(const char *s)
{
    80000e4e:	1141                	addi	sp,sp,-16
    80000e50:	e422                	sd	s0,8(sp)
    80000e52:	0800                	addi	s0,sp,16
  int n;

  for (n = 0; s[n]; n++)
    80000e54:	00054783          	lbu	a5,0(a0)
    80000e58:	cf91                	beqz	a5,80000e74 <strlen+0x26>
    80000e5a:	0505                	addi	a0,a0,1
    80000e5c:	87aa                	mv	a5,a0
    80000e5e:	4685                	li	a3,1
    80000e60:	9e89                	subw	a3,a3,a0
    80000e62:	00f6853b          	addw	a0,a3,a5
    80000e66:	0785                	addi	a5,a5,1
    80000e68:	fff7c703          	lbu	a4,-1(a5)
    80000e6c:	fb7d                	bnez	a4,80000e62 <strlen+0x14>
    ;
  return n;
}
    80000e6e:	6422                	ld	s0,8(sp)
    80000e70:	0141                	addi	sp,sp,16
    80000e72:	8082                	ret
  for (n = 0; s[n]; n++)
    80000e74:	4501                	li	a0,0
    80000e76:	bfe5                	j	80000e6e <strlen+0x20>

0000000080000e78 <main>:

volatile static int started = 0;

// start() jumps here in supervisor mode on all CPUs.
void main()
{
    80000e78:	1141                	addi	sp,sp,-16
    80000e7a:	e406                	sd	ra,8(sp)
    80000e7c:	e022                	sd	s0,0(sp)
    80000e7e:	0800                	addi	s0,sp,16
  if (cpuid() == 0)
    80000e80:	00001097          	auipc	ra,0x1
    80000e84:	b00080e7          	jalr	-1280(ra) # 80001980 <cpuid>
    __sync_synchronize();
    started = 1;
  }
  else
  {
    while (started == 0)
    80000e88:	00008717          	auipc	a4,0x8
    80000e8c:	a6070713          	addi	a4,a4,-1440 # 800088e8 <started>
  if (cpuid() == 0)
    80000e90:	c139                	beqz	a0,80000ed6 <main+0x5e>
    while (started == 0)
    80000e92:	431c                	lw	a5,0(a4)
    80000e94:	2781                	sext.w	a5,a5
    80000e96:	dff5                	beqz	a5,80000e92 <main+0x1a>
      ;
    __sync_synchronize();
    80000e98:	0ff0000f          	fence
    printf("hart %d starting\n", cpuid());
    80000e9c:	00001097          	auipc	ra,0x1
    80000ea0:	ae4080e7          	jalr	-1308(ra) # 80001980 <cpuid>
    80000ea4:	85aa                	mv	a1,a0
    80000ea6:	00007517          	auipc	a0,0x7
    80000eaa:	21250513          	addi	a0,a0,530 # 800080b8 <digits+0x78>
    80000eae:	fffff097          	auipc	ra,0xfffff
    80000eb2:	6dc080e7          	jalr	1756(ra) # 8000058a <printf>
    kvminithart();  // turn on paging
    80000eb6:	00000097          	auipc	ra,0x0
    80000eba:	0d8080e7          	jalr	216(ra) # 80000f8e <kvminithart>
    trapinithart(); // install kernel trap vector
    80000ebe:	00002097          	auipc	ra,0x2
    80000ec2:	996080e7          	jalr	-1642(ra) # 80002854 <trapinithart>
    plicinithart(); // ask PLIC for device interrupts
    80000ec6:	00005097          	auipc	ra,0x5
    80000eca:	0ba080e7          	jalr	186(ra) # 80005f80 <plicinithart>
  }

  scheduler();
    80000ece:	00001097          	auipc	ra,0x1
    80000ed2:	028080e7          	jalr	40(ra) # 80001ef6 <scheduler>
    consoleinit();
    80000ed6:	fffff097          	auipc	ra,0xfffff
    80000eda:	57a080e7          	jalr	1402(ra) # 80000450 <consoleinit>
    printfinit();
    80000ede:	00000097          	auipc	ra,0x0
    80000ee2:	88c080e7          	jalr	-1908(ra) # 8000076a <printfinit>
    printf("\n");
    80000ee6:	00007517          	auipc	a0,0x7
    80000eea:	1e250513          	addi	a0,a0,482 # 800080c8 <digits+0x88>
    80000eee:	fffff097          	auipc	ra,0xfffff
    80000ef2:	69c080e7          	jalr	1692(ra) # 8000058a <printf>
    printf("xv6 kernel is booting\n");
    80000ef6:	00007517          	auipc	a0,0x7
    80000efa:	1aa50513          	addi	a0,a0,426 # 800080a0 <digits+0x60>
    80000efe:	fffff097          	auipc	ra,0xfffff
    80000f02:	68c080e7          	jalr	1676(ra) # 8000058a <printf>
    printf("\n");
    80000f06:	00007517          	auipc	a0,0x7
    80000f0a:	1c250513          	addi	a0,a0,450 # 800080c8 <digits+0x88>
    80000f0e:	fffff097          	auipc	ra,0xfffff
    80000f12:	67c080e7          	jalr	1660(ra) # 8000058a <printf>
    kinit();            // physical page allocator
    80000f16:	00000097          	auipc	ra,0x0
    80000f1a:	b94080e7          	jalr	-1132(ra) # 80000aaa <kinit>
    kvminit();          // create kernel page table
    80000f1e:	00000097          	auipc	ra,0x0
    80000f22:	326080e7          	jalr	806(ra) # 80001244 <kvminit>
    kvminithart();      // turn on paging
    80000f26:	00000097          	auipc	ra,0x0
    80000f2a:	068080e7          	jalr	104(ra) # 80000f8e <kvminithart>
    procinit();         // process table
    80000f2e:	00001097          	auipc	ra,0x1
    80000f32:	99e080e7          	jalr	-1634(ra) # 800018cc <procinit>
    trapinit();         // trap vectors
    80000f36:	00002097          	auipc	ra,0x2
    80000f3a:	8f6080e7          	jalr	-1802(ra) # 8000282c <trapinit>
    trapinithart();     // install kernel trap vector
    80000f3e:	00002097          	auipc	ra,0x2
    80000f42:	916080e7          	jalr	-1770(ra) # 80002854 <trapinithart>
    plicinit();         // set up interrupt controller
    80000f46:	00005097          	auipc	ra,0x5
    80000f4a:	024080e7          	jalr	36(ra) # 80005f6a <plicinit>
    plicinithart();     // ask PLIC for device interrupts
    80000f4e:	00005097          	auipc	ra,0x5
    80000f52:	032080e7          	jalr	50(ra) # 80005f80 <plicinithart>
    binit();            // buffer cache
    80000f56:	00002097          	auipc	ra,0x2
    80000f5a:	1d0080e7          	jalr	464(ra) # 80003126 <binit>
    iinit();            // inode table
    80000f5e:	00003097          	auipc	ra,0x3
    80000f62:	870080e7          	jalr	-1936(ra) # 800037ce <iinit>
    fileinit();         // file table
    80000f66:	00004097          	auipc	ra,0x4
    80000f6a:	816080e7          	jalr	-2026(ra) # 8000477c <fileinit>
    virtio_disk_init(); // emulated hard disk
    80000f6e:	00005097          	auipc	ra,0x5
    80000f72:	202080e7          	jalr	514(ra) # 80006170 <virtio_disk_init>
    userinit();         // first user process
    80000f76:	00001097          	auipc	ra,0x1
    80000f7a:	d62080e7          	jalr	-670(ra) # 80001cd8 <userinit>
    __sync_synchronize();
    80000f7e:	0ff0000f          	fence
    started = 1;
    80000f82:	4785                	li	a5,1
    80000f84:	00008717          	auipc	a4,0x8
    80000f88:	96f72223          	sw	a5,-1692(a4) # 800088e8 <started>
    80000f8c:	b789                	j	80000ece <main+0x56>

0000000080000f8e <kvminithart>:
}

// Switch h/w page table register to the kernel's page table,
// and enable paging.
void kvminithart()
{
    80000f8e:	1141                	addi	sp,sp,-16
    80000f90:	e422                	sd	s0,8(sp)
    80000f92:	0800                	addi	s0,sp,16
// flush the TLB.
static inline void
sfence_vma()
{
  // the zero, zero means flush all TLB entries.
  asm volatile("sfence.vma zero, zero");
    80000f94:	12000073          	sfence.vma
  // wait for any previous writes to the page table memory to finish.
  sfence_vma();

  w_satp(MAKE_SATP(kernel_pagetable));
    80000f98:	00008797          	auipc	a5,0x8
    80000f9c:	9587b783          	ld	a5,-1704(a5) # 800088f0 <kernel_pagetable>
    80000fa0:	83b1                	srli	a5,a5,0xc
    80000fa2:	577d                	li	a4,-1
    80000fa4:	177e                	slli	a4,a4,0x3f
    80000fa6:	8fd9                	or	a5,a5,a4
  asm volatile("csrw satp, %0"
    80000fa8:	18079073          	csrw	satp,a5
  asm volatile("sfence.vma zero, zero");
    80000fac:	12000073          	sfence.vma

  // flush stale entries from the TLB.
  sfence_vma();
}
    80000fb0:	6422                	ld	s0,8(sp)
    80000fb2:	0141                	addi	sp,sp,16
    80000fb4:	8082                	ret

0000000080000fb6 <walk>:
//   21..29 -- 9 bits of level-1 index.
//   12..20 -- 9 bits of level-0 index.
//    0..11 -- 12 bits of byte offset within the page.
pte_t *
walk(pagetable_t pagetable, uint64 va, int alloc)
{
    80000fb6:	7139                	addi	sp,sp,-64
    80000fb8:	fc06                	sd	ra,56(sp)
    80000fba:	f822                	sd	s0,48(sp)
    80000fbc:	f426                	sd	s1,40(sp)
    80000fbe:	f04a                	sd	s2,32(sp)
    80000fc0:	ec4e                	sd	s3,24(sp)
    80000fc2:	e852                	sd	s4,16(sp)
    80000fc4:	e456                	sd	s5,8(sp)
    80000fc6:	e05a                	sd	s6,0(sp)
    80000fc8:	0080                	addi	s0,sp,64
    80000fca:	84aa                	mv	s1,a0
    80000fcc:	89ae                	mv	s3,a1
    80000fce:	8ab2                	mv	s5,a2
  if (va >= MAXVA)
    80000fd0:	57fd                	li	a5,-1
    80000fd2:	83e9                	srli	a5,a5,0x1a
    80000fd4:	4a79                	li	s4,30
    panic("walk");

  for (int level = 2; level > 0; level--)
    80000fd6:	4b31                	li	s6,12
  if (va >= MAXVA)
    80000fd8:	04b7f263          	bgeu	a5,a1,8000101c <walk+0x66>
    panic("walk");
    80000fdc:	00007517          	auipc	a0,0x7
    80000fe0:	0f450513          	addi	a0,a0,244 # 800080d0 <digits+0x90>
    80000fe4:	fffff097          	auipc	ra,0xfffff
    80000fe8:	55c080e7          	jalr	1372(ra) # 80000540 <panic>
    {
      pagetable = (pagetable_t)PTE2PA(*pte);
    }
    else
    {
      if (!alloc || (pagetable = (pde_t *)kalloc()) == 0)
    80000fec:	060a8663          	beqz	s5,80001058 <walk+0xa2>
    80000ff0:	00000097          	auipc	ra,0x0
    80000ff4:	af6080e7          	jalr	-1290(ra) # 80000ae6 <kalloc>
    80000ff8:	84aa                	mv	s1,a0
    80000ffa:	c529                	beqz	a0,80001044 <walk+0x8e>
        return 0;
      memset(pagetable, 0, PGSIZE);
    80000ffc:	6605                	lui	a2,0x1
    80000ffe:	4581                	li	a1,0
    80001000:	00000097          	auipc	ra,0x0
    80001004:	cd2080e7          	jalr	-814(ra) # 80000cd2 <memset>
      *pte = PA2PTE(pagetable) | PTE_V;
    80001008:	00c4d793          	srli	a5,s1,0xc
    8000100c:	07aa                	slli	a5,a5,0xa
    8000100e:	0017e793          	ori	a5,a5,1
    80001012:	00f93023          	sd	a5,0(s2)
  for (int level = 2; level > 0; level--)
    80001016:	3a5d                	addiw	s4,s4,-9 # ffffffffffffeff7 <end+0xffffffff7ffdb84f>
    80001018:	036a0063          	beq	s4,s6,80001038 <walk+0x82>
    pte_t *pte = &pagetable[PX(level, va)];
    8000101c:	0149d933          	srl	s2,s3,s4
    80001020:	1ff97913          	andi	s2,s2,511
    80001024:	090e                	slli	s2,s2,0x3
    80001026:	9926                	add	s2,s2,s1
    if (*pte & PTE_V)
    80001028:	00093483          	ld	s1,0(s2)
    8000102c:	0014f793          	andi	a5,s1,1
    80001030:	dfd5                	beqz	a5,80000fec <walk+0x36>
      pagetable = (pagetable_t)PTE2PA(*pte);
    80001032:	80a9                	srli	s1,s1,0xa
    80001034:	04b2                	slli	s1,s1,0xc
    80001036:	b7c5                	j	80001016 <walk+0x60>
    }
  }
  return &pagetable[PX(0, va)];
    80001038:	00c9d513          	srli	a0,s3,0xc
    8000103c:	1ff57513          	andi	a0,a0,511
    80001040:	050e                	slli	a0,a0,0x3
    80001042:	9526                	add	a0,a0,s1
}
    80001044:	70e2                	ld	ra,56(sp)
    80001046:	7442                	ld	s0,48(sp)
    80001048:	74a2                	ld	s1,40(sp)
    8000104a:	7902                	ld	s2,32(sp)
    8000104c:	69e2                	ld	s3,24(sp)
    8000104e:	6a42                	ld	s4,16(sp)
    80001050:	6aa2                	ld	s5,8(sp)
    80001052:	6b02                	ld	s6,0(sp)
    80001054:	6121                	addi	sp,sp,64
    80001056:	8082                	ret
        return 0;
    80001058:	4501                	li	a0,0
    8000105a:	b7ed                	j	80001044 <walk+0x8e>

000000008000105c <walkaddr>:
walkaddr(pagetable_t pagetable, uint64 va)
{
  pte_t *pte;
  uint64 pa;

  if (va >= MAXVA)
    8000105c:	57fd                	li	a5,-1
    8000105e:	83e9                	srli	a5,a5,0x1a
    80001060:	00b7f463          	bgeu	a5,a1,80001068 <walkaddr+0xc>
    return 0;
    80001064:	4501                	li	a0,0
    return 0;
  if ((*pte & PTE_U) == 0)
    return 0;
  pa = PTE2PA(*pte);
  return pa;
}
    80001066:	8082                	ret
{
    80001068:	1141                	addi	sp,sp,-16
    8000106a:	e406                	sd	ra,8(sp)
    8000106c:	e022                	sd	s0,0(sp)
    8000106e:	0800                	addi	s0,sp,16
  pte = walk(pagetable, va, 0);
    80001070:	4601                	li	a2,0
    80001072:	00000097          	auipc	ra,0x0
    80001076:	f44080e7          	jalr	-188(ra) # 80000fb6 <walk>
  if (pte == 0)
    8000107a:	c105                	beqz	a0,8000109a <walkaddr+0x3e>
  if ((*pte & PTE_V) == 0)
    8000107c:	611c                	ld	a5,0(a0)
  if ((*pte & PTE_U) == 0)
    8000107e:	0117f693          	andi	a3,a5,17
    80001082:	4745                	li	a4,17
    return 0;
    80001084:	4501                	li	a0,0
  if ((*pte & PTE_U) == 0)
    80001086:	00e68663          	beq	a3,a4,80001092 <walkaddr+0x36>
}
    8000108a:	60a2                	ld	ra,8(sp)
    8000108c:	6402                	ld	s0,0(sp)
    8000108e:	0141                	addi	sp,sp,16
    80001090:	8082                	ret
  pa = PTE2PA(*pte);
    80001092:	83a9                	srli	a5,a5,0xa
    80001094:	00c79513          	slli	a0,a5,0xc
  return pa;
    80001098:	bfcd                	j	8000108a <walkaddr+0x2e>
    return 0;
    8000109a:	4501                	li	a0,0
    8000109c:	b7fd                	j	8000108a <walkaddr+0x2e>

000000008000109e <mappages>:
// Create PTEs for virtual addresses starting at va that refer to
// physical addresses starting at pa. va and size might not
// be page-aligned. Returns 0 on success, -1 if walk() couldn't
// allocate a needed page-table page.
int mappages(pagetable_t pagetable, uint64 va, uint64 size, uint64 pa, int perm)
{
    8000109e:	715d                	addi	sp,sp,-80
    800010a0:	e486                	sd	ra,72(sp)
    800010a2:	e0a2                	sd	s0,64(sp)
    800010a4:	fc26                	sd	s1,56(sp)
    800010a6:	f84a                	sd	s2,48(sp)
    800010a8:	f44e                	sd	s3,40(sp)
    800010aa:	f052                	sd	s4,32(sp)
    800010ac:	ec56                	sd	s5,24(sp)
    800010ae:	e85a                	sd	s6,16(sp)
    800010b0:	e45e                	sd	s7,8(sp)
    800010b2:	0880                	addi	s0,sp,80
  uint64 a, last;
  pte_t *pte;

  if (size == 0)
    800010b4:	c639                	beqz	a2,80001102 <mappages+0x64>
    800010b6:	8aaa                	mv	s5,a0
    800010b8:	8b3a                	mv	s6,a4
    panic("mappages: size");

  a = PGROUNDDOWN(va);
    800010ba:	777d                	lui	a4,0xfffff
    800010bc:	00e5f7b3          	and	a5,a1,a4
  last = PGROUNDDOWN(va + size - 1);
    800010c0:	fff58993          	addi	s3,a1,-1
    800010c4:	99b2                	add	s3,s3,a2
    800010c6:	00e9f9b3          	and	s3,s3,a4
  a = PGROUNDDOWN(va);
    800010ca:	893e                	mv	s2,a5
    800010cc:	40f68a33          	sub	s4,a3,a5
    if (*pte & PTE_V)
      panic("mappages: remap");
    *pte = PA2PTE(pa) | perm | PTE_V;
    if (a == last)
      break;
    a += PGSIZE;
    800010d0:	6b85                	lui	s7,0x1
    800010d2:	012a04b3          	add	s1,s4,s2
    if ((pte = walk(pagetable, a, 1)) == 0)
    800010d6:	4605                	li	a2,1
    800010d8:	85ca                	mv	a1,s2
    800010da:	8556                	mv	a0,s5
    800010dc:	00000097          	auipc	ra,0x0
    800010e0:	eda080e7          	jalr	-294(ra) # 80000fb6 <walk>
    800010e4:	cd1d                	beqz	a0,80001122 <mappages+0x84>
    if (*pte & PTE_V)
    800010e6:	611c                	ld	a5,0(a0)
    800010e8:	8b85                	andi	a5,a5,1
    800010ea:	e785                	bnez	a5,80001112 <mappages+0x74>
    *pte = PA2PTE(pa) | perm | PTE_V;
    800010ec:	80b1                	srli	s1,s1,0xc
    800010ee:	04aa                	slli	s1,s1,0xa
    800010f0:	0164e4b3          	or	s1,s1,s6
    800010f4:	0014e493          	ori	s1,s1,1
    800010f8:	e104                	sd	s1,0(a0)
    if (a == last)
    800010fa:	05390063          	beq	s2,s3,8000113a <mappages+0x9c>
    a += PGSIZE;
    800010fe:	995e                	add	s2,s2,s7
    if ((pte = walk(pagetable, a, 1)) == 0)
    80001100:	bfc9                	j	800010d2 <mappages+0x34>
    panic("mappages: size");
    80001102:	00007517          	auipc	a0,0x7
    80001106:	fd650513          	addi	a0,a0,-42 # 800080d8 <digits+0x98>
    8000110a:	fffff097          	auipc	ra,0xfffff
    8000110e:	436080e7          	jalr	1078(ra) # 80000540 <panic>
      panic("mappages: remap");
    80001112:	00007517          	auipc	a0,0x7
    80001116:	fd650513          	addi	a0,a0,-42 # 800080e8 <digits+0xa8>
    8000111a:	fffff097          	auipc	ra,0xfffff
    8000111e:	426080e7          	jalr	1062(ra) # 80000540 <panic>
      return -1;
    80001122:	557d                	li	a0,-1
    pa += PGSIZE;
  }
  return 0;
}
    80001124:	60a6                	ld	ra,72(sp)
    80001126:	6406                	ld	s0,64(sp)
    80001128:	74e2                	ld	s1,56(sp)
    8000112a:	7942                	ld	s2,48(sp)
    8000112c:	79a2                	ld	s3,40(sp)
    8000112e:	7a02                	ld	s4,32(sp)
    80001130:	6ae2                	ld	s5,24(sp)
    80001132:	6b42                	ld	s6,16(sp)
    80001134:	6ba2                	ld	s7,8(sp)
    80001136:	6161                	addi	sp,sp,80
    80001138:	8082                	ret
  return 0;
    8000113a:	4501                	li	a0,0
    8000113c:	b7e5                	j	80001124 <mappages+0x86>

000000008000113e <kvmmap>:
{
    8000113e:	1141                	addi	sp,sp,-16
    80001140:	e406                	sd	ra,8(sp)
    80001142:	e022                	sd	s0,0(sp)
    80001144:	0800                	addi	s0,sp,16
    80001146:	87b6                	mv	a5,a3
  if (mappages(kpgtbl, va, sz, pa, perm) != 0)
    80001148:	86b2                	mv	a3,a2
    8000114a:	863e                	mv	a2,a5
    8000114c:	00000097          	auipc	ra,0x0
    80001150:	f52080e7          	jalr	-174(ra) # 8000109e <mappages>
    80001154:	e509                	bnez	a0,8000115e <kvmmap+0x20>
}
    80001156:	60a2                	ld	ra,8(sp)
    80001158:	6402                	ld	s0,0(sp)
    8000115a:	0141                	addi	sp,sp,16
    8000115c:	8082                	ret
    panic("kvmmap");
    8000115e:	00007517          	auipc	a0,0x7
    80001162:	f9a50513          	addi	a0,a0,-102 # 800080f8 <digits+0xb8>
    80001166:	fffff097          	auipc	ra,0xfffff
    8000116a:	3da080e7          	jalr	986(ra) # 80000540 <panic>

000000008000116e <kvmmake>:
{
    8000116e:	1101                	addi	sp,sp,-32
    80001170:	ec06                	sd	ra,24(sp)
    80001172:	e822                	sd	s0,16(sp)
    80001174:	e426                	sd	s1,8(sp)
    80001176:	e04a                	sd	s2,0(sp)
    80001178:	1000                	addi	s0,sp,32
  kpgtbl = (pagetable_t)kalloc();
    8000117a:	00000097          	auipc	ra,0x0
    8000117e:	96c080e7          	jalr	-1684(ra) # 80000ae6 <kalloc>
    80001182:	84aa                	mv	s1,a0
  memset(kpgtbl, 0, PGSIZE);
    80001184:	6605                	lui	a2,0x1
    80001186:	4581                	li	a1,0
    80001188:	00000097          	auipc	ra,0x0
    8000118c:	b4a080e7          	jalr	-1206(ra) # 80000cd2 <memset>
  kvmmap(kpgtbl, UART0, UART0, PGSIZE, PTE_R | PTE_W);
    80001190:	4719                	li	a4,6
    80001192:	6685                	lui	a3,0x1
    80001194:	10000637          	lui	a2,0x10000
    80001198:	100005b7          	lui	a1,0x10000
    8000119c:	8526                	mv	a0,s1
    8000119e:	00000097          	auipc	ra,0x0
    800011a2:	fa0080e7          	jalr	-96(ra) # 8000113e <kvmmap>
  kvmmap(kpgtbl, VIRTIO0, VIRTIO0, PGSIZE, PTE_R | PTE_W);
    800011a6:	4719                	li	a4,6
    800011a8:	6685                	lui	a3,0x1
    800011aa:	10001637          	lui	a2,0x10001
    800011ae:	100015b7          	lui	a1,0x10001
    800011b2:	8526                	mv	a0,s1
    800011b4:	00000097          	auipc	ra,0x0
    800011b8:	f8a080e7          	jalr	-118(ra) # 8000113e <kvmmap>
  kvmmap(kpgtbl, PLIC, PLIC, 0x400000, PTE_R | PTE_W);
    800011bc:	4719                	li	a4,6
    800011be:	004006b7          	lui	a3,0x400
    800011c2:	0c000637          	lui	a2,0xc000
    800011c6:	0c0005b7          	lui	a1,0xc000
    800011ca:	8526                	mv	a0,s1
    800011cc:	00000097          	auipc	ra,0x0
    800011d0:	f72080e7          	jalr	-142(ra) # 8000113e <kvmmap>
  kvmmap(kpgtbl, KERNBASE, KERNBASE, (uint64)etext - KERNBASE, PTE_R | PTE_X);
    800011d4:	00007917          	auipc	s2,0x7
    800011d8:	e2c90913          	addi	s2,s2,-468 # 80008000 <etext>
    800011dc:	4729                	li	a4,10
    800011de:	80007697          	auipc	a3,0x80007
    800011e2:	e2268693          	addi	a3,a3,-478 # 8000 <_entry-0x7fff8000>
    800011e6:	4605                	li	a2,1
    800011e8:	067e                	slli	a2,a2,0x1f
    800011ea:	85b2                	mv	a1,a2
    800011ec:	8526                	mv	a0,s1
    800011ee:	00000097          	auipc	ra,0x0
    800011f2:	f50080e7          	jalr	-176(ra) # 8000113e <kvmmap>
  kvmmap(kpgtbl, (uint64)etext, (uint64)etext, PHYSTOP - (uint64)etext, PTE_R | PTE_W);
    800011f6:	4719                	li	a4,6
    800011f8:	46c5                	li	a3,17
    800011fa:	06ee                	slli	a3,a3,0x1b
    800011fc:	412686b3          	sub	a3,a3,s2
    80001200:	864a                	mv	a2,s2
    80001202:	85ca                	mv	a1,s2
    80001204:	8526                	mv	a0,s1
    80001206:	00000097          	auipc	ra,0x0
    8000120a:	f38080e7          	jalr	-200(ra) # 8000113e <kvmmap>
  kvmmap(kpgtbl, TRAMPOLINE, (uint64)trampoline, PGSIZE, PTE_R | PTE_X);
    8000120e:	4729                	li	a4,10
    80001210:	6685                	lui	a3,0x1
    80001212:	00006617          	auipc	a2,0x6
    80001216:	dee60613          	addi	a2,a2,-530 # 80007000 <_trampoline>
    8000121a:	040005b7          	lui	a1,0x4000
    8000121e:	15fd                	addi	a1,a1,-1 # 3ffffff <_entry-0x7c000001>
    80001220:	05b2                	slli	a1,a1,0xc
    80001222:	8526                	mv	a0,s1
    80001224:	00000097          	auipc	ra,0x0
    80001228:	f1a080e7          	jalr	-230(ra) # 8000113e <kvmmap>
  proc_mapstacks(kpgtbl);
    8000122c:	8526                	mv	a0,s1
    8000122e:	00000097          	auipc	ra,0x0
    80001232:	608080e7          	jalr	1544(ra) # 80001836 <proc_mapstacks>
}
    80001236:	8526                	mv	a0,s1
    80001238:	60e2                	ld	ra,24(sp)
    8000123a:	6442                	ld	s0,16(sp)
    8000123c:	64a2                	ld	s1,8(sp)
    8000123e:	6902                	ld	s2,0(sp)
    80001240:	6105                	addi	sp,sp,32
    80001242:	8082                	ret

0000000080001244 <kvminit>:
{
    80001244:	1141                	addi	sp,sp,-16
    80001246:	e406                	sd	ra,8(sp)
    80001248:	e022                	sd	s0,0(sp)
    8000124a:	0800                	addi	s0,sp,16
  kernel_pagetable = kvmmake();
    8000124c:	00000097          	auipc	ra,0x0
    80001250:	f22080e7          	jalr	-222(ra) # 8000116e <kvmmake>
    80001254:	00007797          	auipc	a5,0x7
    80001258:	68a7be23          	sd	a0,1692(a5) # 800088f0 <kernel_pagetable>
}
    8000125c:	60a2                	ld	ra,8(sp)
    8000125e:	6402                	ld	s0,0(sp)
    80001260:	0141                	addi	sp,sp,16
    80001262:	8082                	ret

0000000080001264 <uvmunmap>:

// Remove npages of mappings starting from va. va must be
// page-aligned. The mappings must exist.
// Optionally free the physical memory.
void uvmunmap(pagetable_t pagetable, uint64 va, uint64 npages, int do_free)
{
    80001264:	715d                	addi	sp,sp,-80
    80001266:	e486                	sd	ra,72(sp)
    80001268:	e0a2                	sd	s0,64(sp)
    8000126a:	fc26                	sd	s1,56(sp)
    8000126c:	f84a                	sd	s2,48(sp)
    8000126e:	f44e                	sd	s3,40(sp)
    80001270:	f052                	sd	s4,32(sp)
    80001272:	ec56                	sd	s5,24(sp)
    80001274:	e85a                	sd	s6,16(sp)
    80001276:	e45e                	sd	s7,8(sp)
    80001278:	0880                	addi	s0,sp,80
  uint64 a;
  pte_t *pte;

  if ((va % PGSIZE) != 0)
    8000127a:	03459793          	slli	a5,a1,0x34
    8000127e:	e795                	bnez	a5,800012aa <uvmunmap+0x46>
    80001280:	8a2a                	mv	s4,a0
    80001282:	892e                	mv	s2,a1
    80001284:	8ab6                	mv	s5,a3
    panic("uvmunmap: not aligned");

  for (a = va; a < va + npages * PGSIZE; a += PGSIZE)
    80001286:	0632                	slli	a2,a2,0xc
    80001288:	00b609b3          	add	s3,a2,a1
  {
    if ((pte = walk(pagetable, a, 0)) == 0)
      panic("uvmunmap: walk");
    if ((*pte & PTE_V) == 0)
      panic("uvmunmap: not mapped");
    if (PTE_FLAGS(*pte) == PTE_V)
    8000128c:	4b85                	li	s7,1
  for (a = va; a < va + npages * PGSIZE; a += PGSIZE)
    8000128e:	6b05                	lui	s6,0x1
    80001290:	0735e263          	bltu	a1,s3,800012f4 <uvmunmap+0x90>
      uint64 pa = PTE2PA(*pte);
      kfree((void *)pa);
    }
    *pte = 0;
  }
}
    80001294:	60a6                	ld	ra,72(sp)
    80001296:	6406                	ld	s0,64(sp)
    80001298:	74e2                	ld	s1,56(sp)
    8000129a:	7942                	ld	s2,48(sp)
    8000129c:	79a2                	ld	s3,40(sp)
    8000129e:	7a02                	ld	s4,32(sp)
    800012a0:	6ae2                	ld	s5,24(sp)
    800012a2:	6b42                	ld	s6,16(sp)
    800012a4:	6ba2                	ld	s7,8(sp)
    800012a6:	6161                	addi	sp,sp,80
    800012a8:	8082                	ret
    panic("uvmunmap: not aligned");
    800012aa:	00007517          	auipc	a0,0x7
    800012ae:	e5650513          	addi	a0,a0,-426 # 80008100 <digits+0xc0>
    800012b2:	fffff097          	auipc	ra,0xfffff
    800012b6:	28e080e7          	jalr	654(ra) # 80000540 <panic>
      panic("uvmunmap: walk");
    800012ba:	00007517          	auipc	a0,0x7
    800012be:	e5e50513          	addi	a0,a0,-418 # 80008118 <digits+0xd8>
    800012c2:	fffff097          	auipc	ra,0xfffff
    800012c6:	27e080e7          	jalr	638(ra) # 80000540 <panic>
      panic("uvmunmap: not mapped");
    800012ca:	00007517          	auipc	a0,0x7
    800012ce:	e5e50513          	addi	a0,a0,-418 # 80008128 <digits+0xe8>
    800012d2:	fffff097          	auipc	ra,0xfffff
    800012d6:	26e080e7          	jalr	622(ra) # 80000540 <panic>
      panic("uvmunmap: not a leaf");
    800012da:	00007517          	auipc	a0,0x7
    800012de:	e6650513          	addi	a0,a0,-410 # 80008140 <digits+0x100>
    800012e2:	fffff097          	auipc	ra,0xfffff
    800012e6:	25e080e7          	jalr	606(ra) # 80000540 <panic>
    *pte = 0;
    800012ea:	0004b023          	sd	zero,0(s1)
  for (a = va; a < va + npages * PGSIZE; a += PGSIZE)
    800012ee:	995a                	add	s2,s2,s6
    800012f0:	fb3972e3          	bgeu	s2,s3,80001294 <uvmunmap+0x30>
    if ((pte = walk(pagetable, a, 0)) == 0)
    800012f4:	4601                	li	a2,0
    800012f6:	85ca                	mv	a1,s2
    800012f8:	8552                	mv	a0,s4
    800012fa:	00000097          	auipc	ra,0x0
    800012fe:	cbc080e7          	jalr	-836(ra) # 80000fb6 <walk>
    80001302:	84aa                	mv	s1,a0
    80001304:	d95d                	beqz	a0,800012ba <uvmunmap+0x56>
    if ((*pte & PTE_V) == 0)
    80001306:	6108                	ld	a0,0(a0)
    80001308:	00157793          	andi	a5,a0,1
    8000130c:	dfdd                	beqz	a5,800012ca <uvmunmap+0x66>
    if (PTE_FLAGS(*pte) == PTE_V)
    8000130e:	3ff57793          	andi	a5,a0,1023
    80001312:	fd7784e3          	beq	a5,s7,800012da <uvmunmap+0x76>
    if (do_free)
    80001316:	fc0a8ae3          	beqz	s5,800012ea <uvmunmap+0x86>
      uint64 pa = PTE2PA(*pte);
    8000131a:	8129                	srli	a0,a0,0xa
      kfree((void *)pa);
    8000131c:	0532                	slli	a0,a0,0xc
    8000131e:	fffff097          	auipc	ra,0xfffff
    80001322:	6ca080e7          	jalr	1738(ra) # 800009e8 <kfree>
    80001326:	b7d1                	j	800012ea <uvmunmap+0x86>

0000000080001328 <uvmcreate>:

// create an empty user page table.
// returns 0 if out of memory.
pagetable_t
uvmcreate()
{
    80001328:	1101                	addi	sp,sp,-32
    8000132a:	ec06                	sd	ra,24(sp)
    8000132c:	e822                	sd	s0,16(sp)
    8000132e:	e426                	sd	s1,8(sp)
    80001330:	1000                	addi	s0,sp,32
  pagetable_t pagetable;
  pagetable = (pagetable_t)kalloc();
    80001332:	fffff097          	auipc	ra,0xfffff
    80001336:	7b4080e7          	jalr	1972(ra) # 80000ae6 <kalloc>
    8000133a:	84aa                	mv	s1,a0
  if (pagetable == 0)
    8000133c:	c519                	beqz	a0,8000134a <uvmcreate+0x22>
    return 0;
  memset(pagetable, 0, PGSIZE);
    8000133e:	6605                	lui	a2,0x1
    80001340:	4581                	li	a1,0
    80001342:	00000097          	auipc	ra,0x0
    80001346:	990080e7          	jalr	-1648(ra) # 80000cd2 <memset>
  return pagetable;
}
    8000134a:	8526                	mv	a0,s1
    8000134c:	60e2                	ld	ra,24(sp)
    8000134e:	6442                	ld	s0,16(sp)
    80001350:	64a2                	ld	s1,8(sp)
    80001352:	6105                	addi	sp,sp,32
    80001354:	8082                	ret

0000000080001356 <uvmfirst>:

// Load the user initcode into address 0 of pagetable,
// for the very first process.
// sz must be less than a page.
void uvmfirst(pagetable_t pagetable, uchar *src, uint sz)
{
    80001356:	7179                	addi	sp,sp,-48
    80001358:	f406                	sd	ra,40(sp)
    8000135a:	f022                	sd	s0,32(sp)
    8000135c:	ec26                	sd	s1,24(sp)
    8000135e:	e84a                	sd	s2,16(sp)
    80001360:	e44e                	sd	s3,8(sp)
    80001362:	e052                	sd	s4,0(sp)
    80001364:	1800                	addi	s0,sp,48
  char *mem;

  if (sz >= PGSIZE)
    80001366:	6785                	lui	a5,0x1
    80001368:	04f67863          	bgeu	a2,a5,800013b8 <uvmfirst+0x62>
    8000136c:	8a2a                	mv	s4,a0
    8000136e:	89ae                	mv	s3,a1
    80001370:	84b2                	mv	s1,a2
    panic("uvmfirst: more than a page");
  mem = kalloc();
    80001372:	fffff097          	auipc	ra,0xfffff
    80001376:	774080e7          	jalr	1908(ra) # 80000ae6 <kalloc>
    8000137a:	892a                	mv	s2,a0
  memset(mem, 0, PGSIZE);
    8000137c:	6605                	lui	a2,0x1
    8000137e:	4581                	li	a1,0
    80001380:	00000097          	auipc	ra,0x0
    80001384:	952080e7          	jalr	-1710(ra) # 80000cd2 <memset>
  mappages(pagetable, 0, PGSIZE, (uint64)mem, PTE_W | PTE_R | PTE_X | PTE_U);
    80001388:	4779                	li	a4,30
    8000138a:	86ca                	mv	a3,s2
    8000138c:	6605                	lui	a2,0x1
    8000138e:	4581                	li	a1,0
    80001390:	8552                	mv	a0,s4
    80001392:	00000097          	auipc	ra,0x0
    80001396:	d0c080e7          	jalr	-756(ra) # 8000109e <mappages>
  memmove(mem, src, sz);
    8000139a:	8626                	mv	a2,s1
    8000139c:	85ce                	mv	a1,s3
    8000139e:	854a                	mv	a0,s2
    800013a0:	00000097          	auipc	ra,0x0
    800013a4:	98e080e7          	jalr	-1650(ra) # 80000d2e <memmove>
}
    800013a8:	70a2                	ld	ra,40(sp)
    800013aa:	7402                	ld	s0,32(sp)
    800013ac:	64e2                	ld	s1,24(sp)
    800013ae:	6942                	ld	s2,16(sp)
    800013b0:	69a2                	ld	s3,8(sp)
    800013b2:	6a02                	ld	s4,0(sp)
    800013b4:	6145                	addi	sp,sp,48
    800013b6:	8082                	ret
    panic("uvmfirst: more than a page");
    800013b8:	00007517          	auipc	a0,0x7
    800013bc:	da050513          	addi	a0,a0,-608 # 80008158 <digits+0x118>
    800013c0:	fffff097          	auipc	ra,0xfffff
    800013c4:	180080e7          	jalr	384(ra) # 80000540 <panic>

00000000800013c8 <uvmdealloc>:
// newsz.  oldsz and newsz need not be page-aligned, nor does newsz
// need to be less than oldsz.  oldsz can be larger than the actual
// process size.  Returns the new process size.
uint64
uvmdealloc(pagetable_t pagetable, uint64 oldsz, uint64 newsz)
{
    800013c8:	1101                	addi	sp,sp,-32
    800013ca:	ec06                	sd	ra,24(sp)
    800013cc:	e822                	sd	s0,16(sp)
    800013ce:	e426                	sd	s1,8(sp)
    800013d0:	1000                	addi	s0,sp,32
  if (newsz >= oldsz)
    return oldsz;
    800013d2:	84ae                	mv	s1,a1
  if (newsz >= oldsz)
    800013d4:	00b67d63          	bgeu	a2,a1,800013ee <uvmdealloc+0x26>
    800013d8:	84b2                	mv	s1,a2

  if (PGROUNDUP(newsz) < PGROUNDUP(oldsz))
    800013da:	6785                	lui	a5,0x1
    800013dc:	17fd                	addi	a5,a5,-1 # fff <_entry-0x7ffff001>
    800013de:	00f60733          	add	a4,a2,a5
    800013e2:	76fd                	lui	a3,0xfffff
    800013e4:	8f75                	and	a4,a4,a3
    800013e6:	97ae                	add	a5,a5,a1
    800013e8:	8ff5                	and	a5,a5,a3
    800013ea:	00f76863          	bltu	a4,a5,800013fa <uvmdealloc+0x32>
    int npages = (PGROUNDUP(oldsz) - PGROUNDUP(newsz)) / PGSIZE;
    uvmunmap(pagetable, PGROUNDUP(newsz), npages, 1);
  }

  return newsz;
}
    800013ee:	8526                	mv	a0,s1
    800013f0:	60e2                	ld	ra,24(sp)
    800013f2:	6442                	ld	s0,16(sp)
    800013f4:	64a2                	ld	s1,8(sp)
    800013f6:	6105                	addi	sp,sp,32
    800013f8:	8082                	ret
    int npages = (PGROUNDUP(oldsz) - PGROUNDUP(newsz)) / PGSIZE;
    800013fa:	8f99                	sub	a5,a5,a4
    800013fc:	83b1                	srli	a5,a5,0xc
    uvmunmap(pagetable, PGROUNDUP(newsz), npages, 1);
    800013fe:	4685                	li	a3,1
    80001400:	0007861b          	sext.w	a2,a5
    80001404:	85ba                	mv	a1,a4
    80001406:	00000097          	auipc	ra,0x0
    8000140a:	e5e080e7          	jalr	-418(ra) # 80001264 <uvmunmap>
    8000140e:	b7c5                	j	800013ee <uvmdealloc+0x26>

0000000080001410 <uvmalloc>:
  if (newsz < oldsz)
    80001410:	0ab66563          	bltu	a2,a1,800014ba <uvmalloc+0xaa>
{
    80001414:	7139                	addi	sp,sp,-64
    80001416:	fc06                	sd	ra,56(sp)
    80001418:	f822                	sd	s0,48(sp)
    8000141a:	f426                	sd	s1,40(sp)
    8000141c:	f04a                	sd	s2,32(sp)
    8000141e:	ec4e                	sd	s3,24(sp)
    80001420:	e852                	sd	s4,16(sp)
    80001422:	e456                	sd	s5,8(sp)
    80001424:	e05a                	sd	s6,0(sp)
    80001426:	0080                	addi	s0,sp,64
    80001428:	8aaa                	mv	s5,a0
    8000142a:	8a32                	mv	s4,a2
  oldsz = PGROUNDUP(oldsz);
    8000142c:	6785                	lui	a5,0x1
    8000142e:	17fd                	addi	a5,a5,-1 # fff <_entry-0x7ffff001>
    80001430:	95be                	add	a1,a1,a5
    80001432:	77fd                	lui	a5,0xfffff
    80001434:	00f5f9b3          	and	s3,a1,a5
  for (a = oldsz; a < newsz; a += PGSIZE)
    80001438:	08c9f363          	bgeu	s3,a2,800014be <uvmalloc+0xae>
    8000143c:	894e                	mv	s2,s3
    if (mappages(pagetable, a, PGSIZE, (uint64)mem, PTE_R | PTE_U | xperm) != 0)
    8000143e:	0126eb13          	ori	s6,a3,18
    mem = kalloc();
    80001442:	fffff097          	auipc	ra,0xfffff
    80001446:	6a4080e7          	jalr	1700(ra) # 80000ae6 <kalloc>
    8000144a:	84aa                	mv	s1,a0
    if (mem == 0)
    8000144c:	c51d                	beqz	a0,8000147a <uvmalloc+0x6a>
    memset(mem, 0, PGSIZE);
    8000144e:	6605                	lui	a2,0x1
    80001450:	4581                	li	a1,0
    80001452:	00000097          	auipc	ra,0x0
    80001456:	880080e7          	jalr	-1920(ra) # 80000cd2 <memset>
    if (mappages(pagetable, a, PGSIZE, (uint64)mem, PTE_R | PTE_U | xperm) != 0)
    8000145a:	875a                	mv	a4,s6
    8000145c:	86a6                	mv	a3,s1
    8000145e:	6605                	lui	a2,0x1
    80001460:	85ca                	mv	a1,s2
    80001462:	8556                	mv	a0,s5
    80001464:	00000097          	auipc	ra,0x0
    80001468:	c3a080e7          	jalr	-966(ra) # 8000109e <mappages>
    8000146c:	e90d                	bnez	a0,8000149e <uvmalloc+0x8e>
  for (a = oldsz; a < newsz; a += PGSIZE)
    8000146e:	6785                	lui	a5,0x1
    80001470:	993e                	add	s2,s2,a5
    80001472:	fd4968e3          	bltu	s2,s4,80001442 <uvmalloc+0x32>
  return newsz;
    80001476:	8552                	mv	a0,s4
    80001478:	a809                	j	8000148a <uvmalloc+0x7a>
      uvmdealloc(pagetable, a, oldsz);
    8000147a:	864e                	mv	a2,s3
    8000147c:	85ca                	mv	a1,s2
    8000147e:	8556                	mv	a0,s5
    80001480:	00000097          	auipc	ra,0x0
    80001484:	f48080e7          	jalr	-184(ra) # 800013c8 <uvmdealloc>
      return 0;
    80001488:	4501                	li	a0,0
}
    8000148a:	70e2                	ld	ra,56(sp)
    8000148c:	7442                	ld	s0,48(sp)
    8000148e:	74a2                	ld	s1,40(sp)
    80001490:	7902                	ld	s2,32(sp)
    80001492:	69e2                	ld	s3,24(sp)
    80001494:	6a42                	ld	s4,16(sp)
    80001496:	6aa2                	ld	s5,8(sp)
    80001498:	6b02                	ld	s6,0(sp)
    8000149a:	6121                	addi	sp,sp,64
    8000149c:	8082                	ret
      kfree(mem);
    8000149e:	8526                	mv	a0,s1
    800014a0:	fffff097          	auipc	ra,0xfffff
    800014a4:	548080e7          	jalr	1352(ra) # 800009e8 <kfree>
      uvmdealloc(pagetable, a, oldsz);
    800014a8:	864e                	mv	a2,s3
    800014aa:	85ca                	mv	a1,s2
    800014ac:	8556                	mv	a0,s5
    800014ae:	00000097          	auipc	ra,0x0
    800014b2:	f1a080e7          	jalr	-230(ra) # 800013c8 <uvmdealloc>
      return 0;
    800014b6:	4501                	li	a0,0
    800014b8:	bfc9                	j	8000148a <uvmalloc+0x7a>
    return oldsz;
    800014ba:	852e                	mv	a0,a1
}
    800014bc:	8082                	ret
  return newsz;
    800014be:	8532                	mv	a0,a2
    800014c0:	b7e9                	j	8000148a <uvmalloc+0x7a>

00000000800014c2 <freewalk>:

// Recursively free page-table pages.
// All leaf mappings must already have been removed.
void freewalk(pagetable_t pagetable)
{
    800014c2:	7179                	addi	sp,sp,-48
    800014c4:	f406                	sd	ra,40(sp)
    800014c6:	f022                	sd	s0,32(sp)
    800014c8:	ec26                	sd	s1,24(sp)
    800014ca:	e84a                	sd	s2,16(sp)
    800014cc:	e44e                	sd	s3,8(sp)
    800014ce:	e052                	sd	s4,0(sp)
    800014d0:	1800                	addi	s0,sp,48
    800014d2:	8a2a                	mv	s4,a0
  // there are 2^9 = 512 PTEs in a page table.
  for (int i = 0; i < 512; i++)
    800014d4:	84aa                	mv	s1,a0
    800014d6:	6905                	lui	s2,0x1
    800014d8:	992a                	add	s2,s2,a0
  {
    pte_t pte = pagetable[i];
    if ((pte & PTE_V) && (pte & (PTE_R | PTE_W | PTE_X)) == 0)
    800014da:	4985                	li	s3,1
    800014dc:	a829                	j	800014f6 <freewalk+0x34>
    {
      // this PTE points to a lower-level page table.
      uint64 child = PTE2PA(pte);
    800014de:	83a9                	srli	a5,a5,0xa
      freewalk((pagetable_t)child);
    800014e0:	00c79513          	slli	a0,a5,0xc
    800014e4:	00000097          	auipc	ra,0x0
    800014e8:	fde080e7          	jalr	-34(ra) # 800014c2 <freewalk>
      pagetable[i] = 0;
    800014ec:	0004b023          	sd	zero,0(s1)
  for (int i = 0; i < 512; i++)
    800014f0:	04a1                	addi	s1,s1,8
    800014f2:	03248163          	beq	s1,s2,80001514 <freewalk+0x52>
    pte_t pte = pagetable[i];
    800014f6:	609c                	ld	a5,0(s1)
    if ((pte & PTE_V) && (pte & (PTE_R | PTE_W | PTE_X)) == 0)
    800014f8:	00f7f713          	andi	a4,a5,15
    800014fc:	ff3701e3          	beq	a4,s3,800014de <freewalk+0x1c>
    }
    else if (pte & PTE_V)
    80001500:	8b85                	andi	a5,a5,1
    80001502:	d7fd                	beqz	a5,800014f0 <freewalk+0x2e>
    {
      panic("freewalk: leaf");
    80001504:	00007517          	auipc	a0,0x7
    80001508:	c7450513          	addi	a0,a0,-908 # 80008178 <digits+0x138>
    8000150c:	fffff097          	auipc	ra,0xfffff
    80001510:	034080e7          	jalr	52(ra) # 80000540 <panic>
    }
  }
  kfree((void *)pagetable);
    80001514:	8552                	mv	a0,s4
    80001516:	fffff097          	auipc	ra,0xfffff
    8000151a:	4d2080e7          	jalr	1234(ra) # 800009e8 <kfree>
}
    8000151e:	70a2                	ld	ra,40(sp)
    80001520:	7402                	ld	s0,32(sp)
    80001522:	64e2                	ld	s1,24(sp)
    80001524:	6942                	ld	s2,16(sp)
    80001526:	69a2                	ld	s3,8(sp)
    80001528:	6a02                	ld	s4,0(sp)
    8000152a:	6145                	addi	sp,sp,48
    8000152c:	8082                	ret

000000008000152e <uvmfree>:

// Free user memory pages,
// then free page-table pages.
void uvmfree(pagetable_t pagetable, uint64 sz)
{
    8000152e:	1101                	addi	sp,sp,-32
    80001530:	ec06                	sd	ra,24(sp)
    80001532:	e822                	sd	s0,16(sp)
    80001534:	e426                	sd	s1,8(sp)
    80001536:	1000                	addi	s0,sp,32
    80001538:	84aa                	mv	s1,a0
  if (sz > 0)
    8000153a:	e999                	bnez	a1,80001550 <uvmfree+0x22>
    uvmunmap(pagetable, 0, PGROUNDUP(sz) / PGSIZE, 1);
  freewalk(pagetable);
    8000153c:	8526                	mv	a0,s1
    8000153e:	00000097          	auipc	ra,0x0
    80001542:	f84080e7          	jalr	-124(ra) # 800014c2 <freewalk>
}
    80001546:	60e2                	ld	ra,24(sp)
    80001548:	6442                	ld	s0,16(sp)
    8000154a:	64a2                	ld	s1,8(sp)
    8000154c:	6105                	addi	sp,sp,32
    8000154e:	8082                	ret
    uvmunmap(pagetable, 0, PGROUNDUP(sz) / PGSIZE, 1);
    80001550:	6785                	lui	a5,0x1
    80001552:	17fd                	addi	a5,a5,-1 # fff <_entry-0x7ffff001>
    80001554:	95be                	add	a1,a1,a5
    80001556:	4685                	li	a3,1
    80001558:	00c5d613          	srli	a2,a1,0xc
    8000155c:	4581                	li	a1,0
    8000155e:	00000097          	auipc	ra,0x0
    80001562:	d06080e7          	jalr	-762(ra) # 80001264 <uvmunmap>
    80001566:	bfd9                	j	8000153c <uvmfree+0xe>

0000000080001568 <uvmcopy>:
  pte_t *pte;
  uint64 pa, i;
  uint flags;
  char *mem;

  for (i = 0; i < sz; i += PGSIZE)
    80001568:	c679                	beqz	a2,80001636 <uvmcopy+0xce>
{
    8000156a:	715d                	addi	sp,sp,-80
    8000156c:	e486                	sd	ra,72(sp)
    8000156e:	e0a2                	sd	s0,64(sp)
    80001570:	fc26                	sd	s1,56(sp)
    80001572:	f84a                	sd	s2,48(sp)
    80001574:	f44e                	sd	s3,40(sp)
    80001576:	f052                	sd	s4,32(sp)
    80001578:	ec56                	sd	s5,24(sp)
    8000157a:	e85a                	sd	s6,16(sp)
    8000157c:	e45e                	sd	s7,8(sp)
    8000157e:	0880                	addi	s0,sp,80
    80001580:	8b2a                	mv	s6,a0
    80001582:	8aae                	mv	s5,a1
    80001584:	8a32                	mv	s4,a2
  for (i = 0; i < sz; i += PGSIZE)
    80001586:	4981                	li	s3,0
  {
    if ((pte = walk(old, i, 0)) == 0)
    80001588:	4601                	li	a2,0
    8000158a:	85ce                	mv	a1,s3
    8000158c:	855a                	mv	a0,s6
    8000158e:	00000097          	auipc	ra,0x0
    80001592:	a28080e7          	jalr	-1496(ra) # 80000fb6 <walk>
    80001596:	c531                	beqz	a0,800015e2 <uvmcopy+0x7a>
      panic("uvmcopy: pte should exist");
    if ((*pte & PTE_V) == 0)
    80001598:	6118                	ld	a4,0(a0)
    8000159a:	00177793          	andi	a5,a4,1
    8000159e:	cbb1                	beqz	a5,800015f2 <uvmcopy+0x8a>
      panic("uvmcopy: page not present");
    pa = PTE2PA(*pte);
    800015a0:	00a75593          	srli	a1,a4,0xa
    800015a4:	00c59b93          	slli	s7,a1,0xc
    flags = PTE_FLAGS(*pte);
    800015a8:	3ff77493          	andi	s1,a4,1023
    if ((mem = kalloc()) == 0)
    800015ac:	fffff097          	auipc	ra,0xfffff
    800015b0:	53a080e7          	jalr	1338(ra) # 80000ae6 <kalloc>
    800015b4:	892a                	mv	s2,a0
    800015b6:	c939                	beqz	a0,8000160c <uvmcopy+0xa4>
      goto err;
    memmove(mem, (char *)pa, PGSIZE);
    800015b8:	6605                	lui	a2,0x1
    800015ba:	85de                	mv	a1,s7
    800015bc:	fffff097          	auipc	ra,0xfffff
    800015c0:	772080e7          	jalr	1906(ra) # 80000d2e <memmove>
    if (mappages(new, i, PGSIZE, (uint64)mem, flags) != 0)
    800015c4:	8726                	mv	a4,s1
    800015c6:	86ca                	mv	a3,s2
    800015c8:	6605                	lui	a2,0x1
    800015ca:	85ce                	mv	a1,s3
    800015cc:	8556                	mv	a0,s5
    800015ce:	00000097          	auipc	ra,0x0
    800015d2:	ad0080e7          	jalr	-1328(ra) # 8000109e <mappages>
    800015d6:	e515                	bnez	a0,80001602 <uvmcopy+0x9a>
  for (i = 0; i < sz; i += PGSIZE)
    800015d8:	6785                	lui	a5,0x1
    800015da:	99be                	add	s3,s3,a5
    800015dc:	fb49e6e3          	bltu	s3,s4,80001588 <uvmcopy+0x20>
    800015e0:	a081                	j	80001620 <uvmcopy+0xb8>
      panic("uvmcopy: pte should exist");
    800015e2:	00007517          	auipc	a0,0x7
    800015e6:	ba650513          	addi	a0,a0,-1114 # 80008188 <digits+0x148>
    800015ea:	fffff097          	auipc	ra,0xfffff
    800015ee:	f56080e7          	jalr	-170(ra) # 80000540 <panic>
      panic("uvmcopy: page not present");
    800015f2:	00007517          	auipc	a0,0x7
    800015f6:	bb650513          	addi	a0,a0,-1098 # 800081a8 <digits+0x168>
    800015fa:	fffff097          	auipc	ra,0xfffff
    800015fe:	f46080e7          	jalr	-186(ra) # 80000540 <panic>
    {
      kfree(mem);
    80001602:	854a                	mv	a0,s2
    80001604:	fffff097          	auipc	ra,0xfffff
    80001608:	3e4080e7          	jalr	996(ra) # 800009e8 <kfree>
    }
  }
  return 0;

err:
  uvmunmap(new, 0, i / PGSIZE, 1);
    8000160c:	4685                	li	a3,1
    8000160e:	00c9d613          	srli	a2,s3,0xc
    80001612:	4581                	li	a1,0
    80001614:	8556                	mv	a0,s5
    80001616:	00000097          	auipc	ra,0x0
    8000161a:	c4e080e7          	jalr	-946(ra) # 80001264 <uvmunmap>
  return -1;
    8000161e:	557d                	li	a0,-1
}
    80001620:	60a6                	ld	ra,72(sp)
    80001622:	6406                	ld	s0,64(sp)
    80001624:	74e2                	ld	s1,56(sp)
    80001626:	7942                	ld	s2,48(sp)
    80001628:	79a2                	ld	s3,40(sp)
    8000162a:	7a02                	ld	s4,32(sp)
    8000162c:	6ae2                	ld	s5,24(sp)
    8000162e:	6b42                	ld	s6,16(sp)
    80001630:	6ba2                	ld	s7,8(sp)
    80001632:	6161                	addi	sp,sp,80
    80001634:	8082                	ret
  return 0;
    80001636:	4501                	li	a0,0
}
    80001638:	8082                	ret

000000008000163a <uvmclear>:

// mark a PTE invalid for user access.
// used by exec for the user stack guard page.
void uvmclear(pagetable_t pagetable, uint64 va)
{
    8000163a:	1141                	addi	sp,sp,-16
    8000163c:	e406                	sd	ra,8(sp)
    8000163e:	e022                	sd	s0,0(sp)
    80001640:	0800                	addi	s0,sp,16
  pte_t *pte;

  pte = walk(pagetable, va, 0);
    80001642:	4601                	li	a2,0
    80001644:	00000097          	auipc	ra,0x0
    80001648:	972080e7          	jalr	-1678(ra) # 80000fb6 <walk>
  if (pte == 0)
    8000164c:	c901                	beqz	a0,8000165c <uvmclear+0x22>
    panic("uvmclear");
  *pte &= ~PTE_U;
    8000164e:	611c                	ld	a5,0(a0)
    80001650:	9bbd                	andi	a5,a5,-17
    80001652:	e11c                	sd	a5,0(a0)
}
    80001654:	60a2                	ld	ra,8(sp)
    80001656:	6402                	ld	s0,0(sp)
    80001658:	0141                	addi	sp,sp,16
    8000165a:	8082                	ret
    panic("uvmclear");
    8000165c:	00007517          	auipc	a0,0x7
    80001660:	b6c50513          	addi	a0,a0,-1172 # 800081c8 <digits+0x188>
    80001664:	fffff097          	auipc	ra,0xfffff
    80001668:	edc080e7          	jalr	-292(ra) # 80000540 <panic>

000000008000166c <copyout>:
// Return 0 on success, -1 on error.
int copyout(pagetable_t pagetable, uint64 dstva, char *src, uint64 len)
{
  uint64 n, va0, pa0;

  while (len > 0)
    8000166c:	c6bd                	beqz	a3,800016da <copyout+0x6e>
{
    8000166e:	715d                	addi	sp,sp,-80
    80001670:	e486                	sd	ra,72(sp)
    80001672:	e0a2                	sd	s0,64(sp)
    80001674:	fc26                	sd	s1,56(sp)
    80001676:	f84a                	sd	s2,48(sp)
    80001678:	f44e                	sd	s3,40(sp)
    8000167a:	f052                	sd	s4,32(sp)
    8000167c:	ec56                	sd	s5,24(sp)
    8000167e:	e85a                	sd	s6,16(sp)
    80001680:	e45e                	sd	s7,8(sp)
    80001682:	e062                	sd	s8,0(sp)
    80001684:	0880                	addi	s0,sp,80
    80001686:	8b2a                	mv	s6,a0
    80001688:	8c2e                	mv	s8,a1
    8000168a:	8a32                	mv	s4,a2
    8000168c:	89b6                	mv	s3,a3
  {
    va0 = PGROUNDDOWN(dstva);
    8000168e:	7bfd                	lui	s7,0xfffff
    pa0 = walkaddr(pagetable, va0);
    if (pa0 == 0)
      return -1;
    n = PGSIZE - (dstva - va0);
    80001690:	6a85                	lui	s5,0x1
    80001692:	a015                	j	800016b6 <copyout+0x4a>
    if (n > len)
      n = len;
    memmove((void *)(pa0 + (dstva - va0)), src, n);
    80001694:	9562                	add	a0,a0,s8
    80001696:	0004861b          	sext.w	a2,s1
    8000169a:	85d2                	mv	a1,s4
    8000169c:	41250533          	sub	a0,a0,s2
    800016a0:	fffff097          	auipc	ra,0xfffff
    800016a4:	68e080e7          	jalr	1678(ra) # 80000d2e <memmove>

    len -= n;
    800016a8:	409989b3          	sub	s3,s3,s1
    src += n;
    800016ac:	9a26                	add	s4,s4,s1
    dstva = va0 + PGSIZE;
    800016ae:	01590c33          	add	s8,s2,s5
  while (len > 0)
    800016b2:	02098263          	beqz	s3,800016d6 <copyout+0x6a>
    va0 = PGROUNDDOWN(dstva);
    800016b6:	017c7933          	and	s2,s8,s7
    pa0 = walkaddr(pagetable, va0);
    800016ba:	85ca                	mv	a1,s2
    800016bc:	855a                	mv	a0,s6
    800016be:	00000097          	auipc	ra,0x0
    800016c2:	99e080e7          	jalr	-1634(ra) # 8000105c <walkaddr>
    if (pa0 == 0)
    800016c6:	cd01                	beqz	a0,800016de <copyout+0x72>
    n = PGSIZE - (dstva - va0);
    800016c8:	418904b3          	sub	s1,s2,s8
    800016cc:	94d6                	add	s1,s1,s5
    800016ce:	fc99f3e3          	bgeu	s3,s1,80001694 <copyout+0x28>
    800016d2:	84ce                	mv	s1,s3
    800016d4:	b7c1                	j	80001694 <copyout+0x28>
  }
  return 0;
    800016d6:	4501                	li	a0,0
    800016d8:	a021                	j	800016e0 <copyout+0x74>
    800016da:	4501                	li	a0,0
}
    800016dc:	8082                	ret
      return -1;
    800016de:	557d                	li	a0,-1
}
    800016e0:	60a6                	ld	ra,72(sp)
    800016e2:	6406                	ld	s0,64(sp)
    800016e4:	74e2                	ld	s1,56(sp)
    800016e6:	7942                	ld	s2,48(sp)
    800016e8:	79a2                	ld	s3,40(sp)
    800016ea:	7a02                	ld	s4,32(sp)
    800016ec:	6ae2                	ld	s5,24(sp)
    800016ee:	6b42                	ld	s6,16(sp)
    800016f0:	6ba2                	ld	s7,8(sp)
    800016f2:	6c02                	ld	s8,0(sp)
    800016f4:	6161                	addi	sp,sp,80
    800016f6:	8082                	ret

00000000800016f8 <copyin>:
// Return 0 on success, -1 on error.
int copyin(pagetable_t pagetable, char *dst, uint64 srcva, uint64 len)
{
  uint64 n, va0, pa0;

  while (len > 0)
    800016f8:	caa5                	beqz	a3,80001768 <copyin+0x70>
{
    800016fa:	715d                	addi	sp,sp,-80
    800016fc:	e486                	sd	ra,72(sp)
    800016fe:	e0a2                	sd	s0,64(sp)
    80001700:	fc26                	sd	s1,56(sp)
    80001702:	f84a                	sd	s2,48(sp)
    80001704:	f44e                	sd	s3,40(sp)
    80001706:	f052                	sd	s4,32(sp)
    80001708:	ec56                	sd	s5,24(sp)
    8000170a:	e85a                	sd	s6,16(sp)
    8000170c:	e45e                	sd	s7,8(sp)
    8000170e:	e062                	sd	s8,0(sp)
    80001710:	0880                	addi	s0,sp,80
    80001712:	8b2a                	mv	s6,a0
    80001714:	8a2e                	mv	s4,a1
    80001716:	8c32                	mv	s8,a2
    80001718:	89b6                	mv	s3,a3
  {
    va0 = PGROUNDDOWN(srcva);
    8000171a:	7bfd                	lui	s7,0xfffff
    pa0 = walkaddr(pagetable, va0);
    if (pa0 == 0)
      return -1;
    n = PGSIZE - (srcva - va0);
    8000171c:	6a85                	lui	s5,0x1
    8000171e:	a01d                	j	80001744 <copyin+0x4c>
    if (n > len)
      n = len;
    memmove(dst, (void *)(pa0 + (srcva - va0)), n);
    80001720:	018505b3          	add	a1,a0,s8
    80001724:	0004861b          	sext.w	a2,s1
    80001728:	412585b3          	sub	a1,a1,s2
    8000172c:	8552                	mv	a0,s4
    8000172e:	fffff097          	auipc	ra,0xfffff
    80001732:	600080e7          	jalr	1536(ra) # 80000d2e <memmove>

    len -= n;
    80001736:	409989b3          	sub	s3,s3,s1
    dst += n;
    8000173a:	9a26                	add	s4,s4,s1
    srcva = va0 + PGSIZE;
    8000173c:	01590c33          	add	s8,s2,s5
  while (len > 0)
    80001740:	02098263          	beqz	s3,80001764 <copyin+0x6c>
    va0 = PGROUNDDOWN(srcva);
    80001744:	017c7933          	and	s2,s8,s7
    pa0 = walkaddr(pagetable, va0);
    80001748:	85ca                	mv	a1,s2
    8000174a:	855a                	mv	a0,s6
    8000174c:	00000097          	auipc	ra,0x0
    80001750:	910080e7          	jalr	-1776(ra) # 8000105c <walkaddr>
    if (pa0 == 0)
    80001754:	cd01                	beqz	a0,8000176c <copyin+0x74>
    n = PGSIZE - (srcva - va0);
    80001756:	418904b3          	sub	s1,s2,s8
    8000175a:	94d6                	add	s1,s1,s5
    8000175c:	fc99f2e3          	bgeu	s3,s1,80001720 <copyin+0x28>
    80001760:	84ce                	mv	s1,s3
    80001762:	bf7d                	j	80001720 <copyin+0x28>
  }
  return 0;
    80001764:	4501                	li	a0,0
    80001766:	a021                	j	8000176e <copyin+0x76>
    80001768:	4501                	li	a0,0
}
    8000176a:	8082                	ret
      return -1;
    8000176c:	557d                	li	a0,-1
}
    8000176e:	60a6                	ld	ra,72(sp)
    80001770:	6406                	ld	s0,64(sp)
    80001772:	74e2                	ld	s1,56(sp)
    80001774:	7942                	ld	s2,48(sp)
    80001776:	79a2                	ld	s3,40(sp)
    80001778:	7a02                	ld	s4,32(sp)
    8000177a:	6ae2                	ld	s5,24(sp)
    8000177c:	6b42                	ld	s6,16(sp)
    8000177e:	6ba2                	ld	s7,8(sp)
    80001780:	6c02                	ld	s8,0(sp)
    80001782:	6161                	addi	sp,sp,80
    80001784:	8082                	ret

0000000080001786 <copyinstr>:
int copyinstr(pagetable_t pagetable, char *dst, uint64 srcva, uint64 max)
{
  uint64 n, va0, pa0;
  int got_null = 0;

  while (got_null == 0 && max > 0)
    80001786:	c2dd                	beqz	a3,8000182c <copyinstr+0xa6>
{
    80001788:	715d                	addi	sp,sp,-80
    8000178a:	e486                	sd	ra,72(sp)
    8000178c:	e0a2                	sd	s0,64(sp)
    8000178e:	fc26                	sd	s1,56(sp)
    80001790:	f84a                	sd	s2,48(sp)
    80001792:	f44e                	sd	s3,40(sp)
    80001794:	f052                	sd	s4,32(sp)
    80001796:	ec56                	sd	s5,24(sp)
    80001798:	e85a                	sd	s6,16(sp)
    8000179a:	e45e                	sd	s7,8(sp)
    8000179c:	0880                	addi	s0,sp,80
    8000179e:	8a2a                	mv	s4,a0
    800017a0:	8b2e                	mv	s6,a1
    800017a2:	8bb2                	mv	s7,a2
    800017a4:	84b6                	mv	s1,a3
  {
    va0 = PGROUNDDOWN(srcva);
    800017a6:	7afd                	lui	s5,0xfffff
    pa0 = walkaddr(pagetable, va0);
    if (pa0 == 0)
      return -1;
    n = PGSIZE - (srcva - va0);
    800017a8:	6985                	lui	s3,0x1
    800017aa:	a02d                	j	800017d4 <copyinstr+0x4e>
    char *p = (char *)(pa0 + (srcva - va0));
    while (n > 0)
    {
      if (*p == '\0')
      {
        *dst = '\0';
    800017ac:	00078023          	sb	zero,0(a5) # 1000 <_entry-0x7ffff000>
    800017b0:	4785                	li	a5,1
      dst++;
    }

    srcva = va0 + PGSIZE;
  }
  if (got_null)
    800017b2:	37fd                	addiw	a5,a5,-1
    800017b4:	0007851b          	sext.w	a0,a5
  }
  else
  {
    return -1;
  }
}
    800017b8:	60a6                	ld	ra,72(sp)
    800017ba:	6406                	ld	s0,64(sp)
    800017bc:	74e2                	ld	s1,56(sp)
    800017be:	7942                	ld	s2,48(sp)
    800017c0:	79a2                	ld	s3,40(sp)
    800017c2:	7a02                	ld	s4,32(sp)
    800017c4:	6ae2                	ld	s5,24(sp)
    800017c6:	6b42                	ld	s6,16(sp)
    800017c8:	6ba2                	ld	s7,8(sp)
    800017ca:	6161                	addi	sp,sp,80
    800017cc:	8082                	ret
    srcva = va0 + PGSIZE;
    800017ce:	01390bb3          	add	s7,s2,s3
  while (got_null == 0 && max > 0)
    800017d2:	c8a9                	beqz	s1,80001824 <copyinstr+0x9e>
    va0 = PGROUNDDOWN(srcva);
    800017d4:	015bf933          	and	s2,s7,s5
    pa0 = walkaddr(pagetable, va0);
    800017d8:	85ca                	mv	a1,s2
    800017da:	8552                	mv	a0,s4
    800017dc:	00000097          	auipc	ra,0x0
    800017e0:	880080e7          	jalr	-1920(ra) # 8000105c <walkaddr>
    if (pa0 == 0)
    800017e4:	c131                	beqz	a0,80001828 <copyinstr+0xa2>
    n = PGSIZE - (srcva - va0);
    800017e6:	417906b3          	sub	a3,s2,s7
    800017ea:	96ce                	add	a3,a3,s3
    800017ec:	00d4f363          	bgeu	s1,a3,800017f2 <copyinstr+0x6c>
    800017f0:	86a6                	mv	a3,s1
    char *p = (char *)(pa0 + (srcva - va0));
    800017f2:	955e                	add	a0,a0,s7
    800017f4:	41250533          	sub	a0,a0,s2
    while (n > 0)
    800017f8:	daf9                	beqz	a3,800017ce <copyinstr+0x48>
    800017fa:	87da                	mv	a5,s6
      if (*p == '\0')
    800017fc:	41650633          	sub	a2,a0,s6
    80001800:	fff48593          	addi	a1,s1,-1
    80001804:	95da                	add	a1,a1,s6
    while (n > 0)
    80001806:	96da                	add	a3,a3,s6
      if (*p == '\0')
    80001808:	00f60733          	add	a4,a2,a5
    8000180c:	00074703          	lbu	a4,0(a4) # fffffffffffff000 <end+0xffffffff7ffdb858>
    80001810:	df51                	beqz	a4,800017ac <copyinstr+0x26>
        *dst = *p;
    80001812:	00e78023          	sb	a4,0(a5)
      --max;
    80001816:	40f584b3          	sub	s1,a1,a5
      dst++;
    8000181a:	0785                	addi	a5,a5,1
    while (n > 0)
    8000181c:	fed796e3          	bne	a5,a3,80001808 <copyinstr+0x82>
      dst++;
    80001820:	8b3e                	mv	s6,a5
    80001822:	b775                	j	800017ce <copyinstr+0x48>
    80001824:	4781                	li	a5,0
    80001826:	b771                	j	800017b2 <copyinstr+0x2c>
      return -1;
    80001828:	557d                	li	a0,-1
    8000182a:	b779                	j	800017b8 <copyinstr+0x32>
  int got_null = 0;
    8000182c:	4781                	li	a5,0
  if (got_null)
    8000182e:	37fd                	addiw	a5,a5,-1
    80001830:	0007851b          	sext.w	a0,a5
}
    80001834:	8082                	ret

0000000080001836 <proc_mapstacks>:

// Allocate a page for each process's kernel stack.
// Map it high in memory, followed by an invalid
// guard page.
void proc_mapstacks(pagetable_t kpgtbl)
{
    80001836:	7139                	addi	sp,sp,-64
    80001838:	fc06                	sd	ra,56(sp)
    8000183a:	f822                	sd	s0,48(sp)
    8000183c:	f426                	sd	s1,40(sp)
    8000183e:	f04a                	sd	s2,32(sp)
    80001840:	ec4e                	sd	s3,24(sp)
    80001842:	e852                	sd	s4,16(sp)
    80001844:	e456                	sd	s5,8(sp)
    80001846:	e05a                	sd	s6,0(sp)
    80001848:	0080                	addi	s0,sp,64
    8000184a:	89aa                	mv	s3,a0
  struct proc *p;

  for (p = proc; p < &proc[NPROC]; p++)
    8000184c:	0000f497          	auipc	s1,0xf
    80001850:	75448493          	addi	s1,s1,1876 # 80010fa0 <proc>
  {
    char *pa = kalloc();
    if (pa == 0)
      panic("kalloc");
    uint64 va = KSTACK((int)(p - proc));
    80001854:	8b26                	mv	s6,s1
    80001856:	00006a97          	auipc	s5,0x6
    8000185a:	7aaa8a93          	addi	s5,s5,1962 # 80008000 <etext>
    8000185e:	04000937          	lui	s2,0x4000
    80001862:	197d                	addi	s2,s2,-1 # 3ffffff <_entry-0x7c000001>
    80001864:	0932                	slli	s2,s2,0xc
  for (p = proc; p < &proc[NPROC]; p++)
    80001866:	00016a17          	auipc	s4,0x16
    8000186a:	13aa0a13          	addi	s4,s4,314 # 800179a0 <mlfq>
    char *pa = kalloc();
    8000186e:	fffff097          	auipc	ra,0xfffff
    80001872:	278080e7          	jalr	632(ra) # 80000ae6 <kalloc>
    80001876:	862a                	mv	a2,a0
    if (pa == 0)
    80001878:	c131                	beqz	a0,800018bc <proc_mapstacks+0x86>
    uint64 va = KSTACK((int)(p - proc));
    8000187a:	416485b3          	sub	a1,s1,s6
    8000187e:	858d                	srai	a1,a1,0x3
    80001880:	000ab783          	ld	a5,0(s5)
    80001884:	02f585b3          	mul	a1,a1,a5
    80001888:	2585                	addiw	a1,a1,1
    8000188a:	00d5959b          	slliw	a1,a1,0xd
    kvmmap(kpgtbl, va, (uint64)pa, PGSIZE, PTE_R | PTE_W);
    8000188e:	4719                	li	a4,6
    80001890:	6685                	lui	a3,0x1
    80001892:	40b905b3          	sub	a1,s2,a1
    80001896:	854e                	mv	a0,s3
    80001898:	00000097          	auipc	ra,0x0
    8000189c:	8a6080e7          	jalr	-1882(ra) # 8000113e <kvmmap>
  for (p = proc; p < &proc[NPROC]; p++)
    800018a0:	1a848493          	addi	s1,s1,424
    800018a4:	fd4495e3          	bne	s1,s4,8000186e <proc_mapstacks+0x38>
  }
}
    800018a8:	70e2                	ld	ra,56(sp)
    800018aa:	7442                	ld	s0,48(sp)
    800018ac:	74a2                	ld	s1,40(sp)
    800018ae:	7902                	ld	s2,32(sp)
    800018b0:	69e2                	ld	s3,24(sp)
    800018b2:	6a42                	ld	s4,16(sp)
    800018b4:	6aa2                	ld	s5,8(sp)
    800018b6:	6b02                	ld	s6,0(sp)
    800018b8:	6121                	addi	sp,sp,64
    800018ba:	8082                	ret
      panic("kalloc");
    800018bc:	00007517          	auipc	a0,0x7
    800018c0:	91c50513          	addi	a0,a0,-1764 # 800081d8 <digits+0x198>
    800018c4:	fffff097          	auipc	ra,0xfffff
    800018c8:	c7c080e7          	jalr	-900(ra) # 80000540 <panic>

00000000800018cc <procinit>:

// initialize the proc table.
void procinit(void)
{
    800018cc:	7139                	addi	sp,sp,-64
    800018ce:	fc06                	sd	ra,56(sp)
    800018d0:	f822                	sd	s0,48(sp)
    800018d2:	f426                	sd	s1,40(sp)
    800018d4:	f04a                	sd	s2,32(sp)
    800018d6:	ec4e                	sd	s3,24(sp)
    800018d8:	e852                	sd	s4,16(sp)
    800018da:	e456                	sd	s5,8(sp)
    800018dc:	e05a                	sd	s6,0(sp)
    800018de:	0080                	addi	s0,sp,64
  struct proc *p;

  initlock(&pid_lock, "nextpid");
    800018e0:	00007597          	auipc	a1,0x7
    800018e4:	90058593          	addi	a1,a1,-1792 # 800081e0 <digits+0x1a0>
    800018e8:	0000f517          	auipc	a0,0xf
    800018ec:	28850513          	addi	a0,a0,648 # 80010b70 <pid_lock>
    800018f0:	fffff097          	auipc	ra,0xfffff
    800018f4:	256080e7          	jalr	598(ra) # 80000b46 <initlock>
  initlock(&wait_lock, "wait_lock");
    800018f8:	00007597          	auipc	a1,0x7
    800018fc:	8f058593          	addi	a1,a1,-1808 # 800081e8 <digits+0x1a8>
    80001900:	0000f517          	auipc	a0,0xf
    80001904:	28850513          	addi	a0,a0,648 # 80010b88 <wait_lock>
    80001908:	fffff097          	auipc	ra,0xfffff
    8000190c:	23e080e7          	jalr	574(ra) # 80000b46 <initlock>
  for (p = proc; p < &proc[NPROC]; p++)
    80001910:	0000f497          	auipc	s1,0xf
    80001914:	69048493          	addi	s1,s1,1680 # 80010fa0 <proc>
  {
    initlock(&p->lock, "proc");
    80001918:	00007b17          	auipc	s6,0x7
    8000191c:	8e0b0b13          	addi	s6,s6,-1824 # 800081f8 <digits+0x1b8>
    p->state = UNUSED;
    p->kstack = KSTACK((int)(p - proc));
    80001920:	8aa6                	mv	s5,s1
    80001922:	00006a17          	auipc	s4,0x6
    80001926:	6dea0a13          	addi	s4,s4,1758 # 80008000 <etext>
    8000192a:	04000937          	lui	s2,0x4000
    8000192e:	197d                	addi	s2,s2,-1 # 3ffffff <_entry-0x7c000001>
    80001930:	0932                	slli	s2,s2,0xc
  for (p = proc; p < &proc[NPROC]; p++)
    80001932:	00016997          	auipc	s3,0x16
    80001936:	06e98993          	addi	s3,s3,110 # 800179a0 <mlfq>
    initlock(&p->lock, "proc");
    8000193a:	85da                	mv	a1,s6
    8000193c:	8526                	mv	a0,s1
    8000193e:	fffff097          	auipc	ra,0xfffff
    80001942:	208080e7          	jalr	520(ra) # 80000b46 <initlock>
    p->state = UNUSED;
    80001946:	0004ac23          	sw	zero,24(s1)
    p->kstack = KSTACK((int)(p - proc));
    8000194a:	415487b3          	sub	a5,s1,s5
    8000194e:	878d                	srai	a5,a5,0x3
    80001950:	000a3703          	ld	a4,0(s4)
    80001954:	02e787b3          	mul	a5,a5,a4
    80001958:	2785                	addiw	a5,a5,1
    8000195a:	00d7979b          	slliw	a5,a5,0xd
    8000195e:	40f907b3          	sub	a5,s2,a5
    80001962:	e0bc                	sd	a5,64(s1)
  for (p = proc; p < &proc[NPROC]; p++)
    80001964:	1a848493          	addi	s1,s1,424
    80001968:	fd3499e3          	bne	s1,s3,8000193a <procinit+0x6e>
  }
}
    8000196c:	70e2                	ld	ra,56(sp)
    8000196e:	7442                	ld	s0,48(sp)
    80001970:	74a2                	ld	s1,40(sp)
    80001972:	7902                	ld	s2,32(sp)
    80001974:	69e2                	ld	s3,24(sp)
    80001976:	6a42                	ld	s4,16(sp)
    80001978:	6aa2                	ld	s5,8(sp)
    8000197a:	6b02                	ld	s6,0(sp)
    8000197c:	6121                	addi	sp,sp,64
    8000197e:	8082                	ret

0000000080001980 <cpuid>:

// Must be called with interrupts disabled,
// to prevent race with process being moved
// to a different CPU.
int cpuid()
{
    80001980:	1141                	addi	sp,sp,-16
    80001982:	e422                	sd	s0,8(sp)
    80001984:	0800                	addi	s0,sp,16
  asm volatile("mv %0, tp"
    80001986:	8512                	mv	a0,tp
  int id = r_tp();
  return id;
}
    80001988:	2501                	sext.w	a0,a0
    8000198a:	6422                	ld	s0,8(sp)
    8000198c:	0141                	addi	sp,sp,16
    8000198e:	8082                	ret

0000000080001990 <mycpu>:

// Return this CPU's cpu struct.
// Interrupts must be disabled.
struct cpu *
mycpu(void)
{
    80001990:	1141                	addi	sp,sp,-16
    80001992:	e422                	sd	s0,8(sp)
    80001994:	0800                	addi	s0,sp,16
    80001996:	8792                	mv	a5,tp
  int id = cpuid();
  struct cpu *c = &cpus[id];
    80001998:	2781                	sext.w	a5,a5
    8000199a:	079e                	slli	a5,a5,0x7
  return c;
}
    8000199c:	0000f517          	auipc	a0,0xf
    800019a0:	20450513          	addi	a0,a0,516 # 80010ba0 <cpus>
    800019a4:	953e                	add	a0,a0,a5
    800019a6:	6422                	ld	s0,8(sp)
    800019a8:	0141                	addi	sp,sp,16
    800019aa:	8082                	ret

00000000800019ac <myproc>:

// Return the current struct proc *, or zero if none.
struct proc *
myproc(void)
{
    800019ac:	1101                	addi	sp,sp,-32
    800019ae:	ec06                	sd	ra,24(sp)
    800019b0:	e822                	sd	s0,16(sp)
    800019b2:	e426                	sd	s1,8(sp)
    800019b4:	1000                	addi	s0,sp,32
  push_off();
    800019b6:	fffff097          	auipc	ra,0xfffff
    800019ba:	1d4080e7          	jalr	468(ra) # 80000b8a <push_off>
    800019be:	8792                	mv	a5,tp
  struct cpu *c = mycpu();
  struct proc *p = c->proc;
    800019c0:	2781                	sext.w	a5,a5
    800019c2:	079e                	slli	a5,a5,0x7
    800019c4:	0000f717          	auipc	a4,0xf
    800019c8:	1ac70713          	addi	a4,a4,428 # 80010b70 <pid_lock>
    800019cc:	97ba                	add	a5,a5,a4
    800019ce:	7b84                	ld	s1,48(a5)
  pop_off();
    800019d0:	fffff097          	auipc	ra,0xfffff
    800019d4:	25a080e7          	jalr	602(ra) # 80000c2a <pop_off>
  return p;
}
    800019d8:	8526                	mv	a0,s1
    800019da:	60e2                	ld	ra,24(sp)
    800019dc:	6442                	ld	s0,16(sp)
    800019de:	64a2                	ld	s1,8(sp)
    800019e0:	6105                	addi	sp,sp,32
    800019e2:	8082                	ret

00000000800019e4 <forkret>:
}

// A fork child's very first scheduling by scheduler()
// will swtch to forkret.
void forkret(void)
{
    800019e4:	1141                	addi	sp,sp,-16
    800019e6:	e406                	sd	ra,8(sp)
    800019e8:	e022                	sd	s0,0(sp)
    800019ea:	0800                	addi	s0,sp,16
  static int first = 1;

  // Still holding p->lock from scheduler.
  release(&myproc()->lock);
    800019ec:	00000097          	auipc	ra,0x0
    800019f0:	fc0080e7          	jalr	-64(ra) # 800019ac <myproc>
    800019f4:	fffff097          	auipc	ra,0xfffff
    800019f8:	296080e7          	jalr	662(ra) # 80000c8a <release>

  if (first)
    800019fc:	00007797          	auipc	a5,0x7
    80001a00:	e647a783          	lw	a5,-412(a5) # 80008860 <first.1>
    80001a04:	eb89                	bnez	a5,80001a16 <forkret+0x32>
    // be run from main().
    first = 0;
    fsinit(ROOTDEV);
  }

  usertrapret();
    80001a06:	00001097          	auipc	ra,0x1
    80001a0a:	e66080e7          	jalr	-410(ra) # 8000286c <usertrapret>
}
    80001a0e:	60a2                	ld	ra,8(sp)
    80001a10:	6402                	ld	s0,0(sp)
    80001a12:	0141                	addi	sp,sp,16
    80001a14:	8082                	ret
    first = 0;
    80001a16:	00007797          	auipc	a5,0x7
    80001a1a:	e407a523          	sw	zero,-438(a5) # 80008860 <first.1>
    fsinit(ROOTDEV);
    80001a1e:	4505                	li	a0,1
    80001a20:	00002097          	auipc	ra,0x2
    80001a24:	d2e080e7          	jalr	-722(ra) # 8000374e <fsinit>
    80001a28:	bff9                	j	80001a06 <forkret+0x22>

0000000080001a2a <allocpid>:
{
    80001a2a:	1101                	addi	sp,sp,-32
    80001a2c:	ec06                	sd	ra,24(sp)
    80001a2e:	e822                	sd	s0,16(sp)
    80001a30:	e426                	sd	s1,8(sp)
    80001a32:	e04a                	sd	s2,0(sp)
    80001a34:	1000                	addi	s0,sp,32
  acquire(&pid_lock);
    80001a36:	0000f917          	auipc	s2,0xf
    80001a3a:	13a90913          	addi	s2,s2,314 # 80010b70 <pid_lock>
    80001a3e:	854a                	mv	a0,s2
    80001a40:	fffff097          	auipc	ra,0xfffff
    80001a44:	196080e7          	jalr	406(ra) # 80000bd6 <acquire>
  pid = nextpid;
    80001a48:	00007797          	auipc	a5,0x7
    80001a4c:	e1c78793          	addi	a5,a5,-484 # 80008864 <nextpid>
    80001a50:	4384                	lw	s1,0(a5)
  nextpid = nextpid + 1;
    80001a52:	0014871b          	addiw	a4,s1,1
    80001a56:	c398                	sw	a4,0(a5)
  release(&pid_lock);
    80001a58:	854a                	mv	a0,s2
    80001a5a:	fffff097          	auipc	ra,0xfffff
    80001a5e:	230080e7          	jalr	560(ra) # 80000c8a <release>
}
    80001a62:	8526                	mv	a0,s1
    80001a64:	60e2                	ld	ra,24(sp)
    80001a66:	6442                	ld	s0,16(sp)
    80001a68:	64a2                	ld	s1,8(sp)
    80001a6a:	6902                	ld	s2,0(sp)
    80001a6c:	6105                	addi	sp,sp,32
    80001a6e:	8082                	ret

0000000080001a70 <proc_pagetable>:
{
    80001a70:	1101                	addi	sp,sp,-32
    80001a72:	ec06                	sd	ra,24(sp)
    80001a74:	e822                	sd	s0,16(sp)
    80001a76:	e426                	sd	s1,8(sp)
    80001a78:	e04a                	sd	s2,0(sp)
    80001a7a:	1000                	addi	s0,sp,32
    80001a7c:	892a                	mv	s2,a0
  pagetable = uvmcreate();
    80001a7e:	00000097          	auipc	ra,0x0
    80001a82:	8aa080e7          	jalr	-1878(ra) # 80001328 <uvmcreate>
    80001a86:	84aa                	mv	s1,a0
  if (pagetable == 0)
    80001a88:	c121                	beqz	a0,80001ac8 <proc_pagetable+0x58>
  if (mappages(pagetable, TRAMPOLINE, PGSIZE,
    80001a8a:	4729                	li	a4,10
    80001a8c:	00005697          	auipc	a3,0x5
    80001a90:	57468693          	addi	a3,a3,1396 # 80007000 <_trampoline>
    80001a94:	6605                	lui	a2,0x1
    80001a96:	040005b7          	lui	a1,0x4000
    80001a9a:	15fd                	addi	a1,a1,-1 # 3ffffff <_entry-0x7c000001>
    80001a9c:	05b2                	slli	a1,a1,0xc
    80001a9e:	fffff097          	auipc	ra,0xfffff
    80001aa2:	600080e7          	jalr	1536(ra) # 8000109e <mappages>
    80001aa6:	02054863          	bltz	a0,80001ad6 <proc_pagetable+0x66>
  if (mappages(pagetable, TRAPFRAME, PGSIZE,
    80001aaa:	4719                	li	a4,6
    80001aac:	05893683          	ld	a3,88(s2)
    80001ab0:	6605                	lui	a2,0x1
    80001ab2:	020005b7          	lui	a1,0x2000
    80001ab6:	15fd                	addi	a1,a1,-1 # 1ffffff <_entry-0x7e000001>
    80001ab8:	05b6                	slli	a1,a1,0xd
    80001aba:	8526                	mv	a0,s1
    80001abc:	fffff097          	auipc	ra,0xfffff
    80001ac0:	5e2080e7          	jalr	1506(ra) # 8000109e <mappages>
    80001ac4:	02054163          	bltz	a0,80001ae6 <proc_pagetable+0x76>
}
    80001ac8:	8526                	mv	a0,s1
    80001aca:	60e2                	ld	ra,24(sp)
    80001acc:	6442                	ld	s0,16(sp)
    80001ace:	64a2                	ld	s1,8(sp)
    80001ad0:	6902                	ld	s2,0(sp)
    80001ad2:	6105                	addi	sp,sp,32
    80001ad4:	8082                	ret
    uvmfree(pagetable, 0);
    80001ad6:	4581                	li	a1,0
    80001ad8:	8526                	mv	a0,s1
    80001ada:	00000097          	auipc	ra,0x0
    80001ade:	a54080e7          	jalr	-1452(ra) # 8000152e <uvmfree>
    return 0;
    80001ae2:	4481                	li	s1,0
    80001ae4:	b7d5                	j	80001ac8 <proc_pagetable+0x58>
    uvmunmap(pagetable, TRAMPOLINE, 1, 0);
    80001ae6:	4681                	li	a3,0
    80001ae8:	4605                	li	a2,1
    80001aea:	040005b7          	lui	a1,0x4000
    80001aee:	15fd                	addi	a1,a1,-1 # 3ffffff <_entry-0x7c000001>
    80001af0:	05b2                	slli	a1,a1,0xc
    80001af2:	8526                	mv	a0,s1
    80001af4:	fffff097          	auipc	ra,0xfffff
    80001af8:	770080e7          	jalr	1904(ra) # 80001264 <uvmunmap>
    uvmfree(pagetable, 0);
    80001afc:	4581                	li	a1,0
    80001afe:	8526                	mv	a0,s1
    80001b00:	00000097          	auipc	ra,0x0
    80001b04:	a2e080e7          	jalr	-1490(ra) # 8000152e <uvmfree>
    return 0;
    80001b08:	4481                	li	s1,0
    80001b0a:	bf7d                	j	80001ac8 <proc_pagetable+0x58>

0000000080001b0c <proc_freepagetable>:
{
    80001b0c:	1101                	addi	sp,sp,-32
    80001b0e:	ec06                	sd	ra,24(sp)
    80001b10:	e822                	sd	s0,16(sp)
    80001b12:	e426                	sd	s1,8(sp)
    80001b14:	e04a                	sd	s2,0(sp)
    80001b16:	1000                	addi	s0,sp,32
    80001b18:	84aa                	mv	s1,a0
    80001b1a:	892e                	mv	s2,a1
  uvmunmap(pagetable, TRAMPOLINE, 1, 0);
    80001b1c:	4681                	li	a3,0
    80001b1e:	4605                	li	a2,1
    80001b20:	040005b7          	lui	a1,0x4000
    80001b24:	15fd                	addi	a1,a1,-1 # 3ffffff <_entry-0x7c000001>
    80001b26:	05b2                	slli	a1,a1,0xc
    80001b28:	fffff097          	auipc	ra,0xfffff
    80001b2c:	73c080e7          	jalr	1852(ra) # 80001264 <uvmunmap>
  uvmunmap(pagetable, TRAPFRAME, 1, 0);
    80001b30:	4681                	li	a3,0
    80001b32:	4605                	li	a2,1
    80001b34:	020005b7          	lui	a1,0x2000
    80001b38:	15fd                	addi	a1,a1,-1 # 1ffffff <_entry-0x7e000001>
    80001b3a:	05b6                	slli	a1,a1,0xd
    80001b3c:	8526                	mv	a0,s1
    80001b3e:	fffff097          	auipc	ra,0xfffff
    80001b42:	726080e7          	jalr	1830(ra) # 80001264 <uvmunmap>
  uvmfree(pagetable, sz);
    80001b46:	85ca                	mv	a1,s2
    80001b48:	8526                	mv	a0,s1
    80001b4a:	00000097          	auipc	ra,0x0
    80001b4e:	9e4080e7          	jalr	-1564(ra) # 8000152e <uvmfree>
}
    80001b52:	60e2                	ld	ra,24(sp)
    80001b54:	6442                	ld	s0,16(sp)
    80001b56:	64a2                	ld	s1,8(sp)
    80001b58:	6902                	ld	s2,0(sp)
    80001b5a:	6105                	addi	sp,sp,32
    80001b5c:	8082                	ret

0000000080001b5e <freeproc>:
{
    80001b5e:	1101                	addi	sp,sp,-32
    80001b60:	ec06                	sd	ra,24(sp)
    80001b62:	e822                	sd	s0,16(sp)
    80001b64:	e426                	sd	s1,8(sp)
    80001b66:	1000                	addi	s0,sp,32
    80001b68:	84aa                	mv	s1,a0
  if (p->trapframe)
    80001b6a:	6d28                	ld	a0,88(a0)
    80001b6c:	c509                	beqz	a0,80001b76 <freeproc+0x18>
    kfree((void *)p->trapframe);
    80001b6e:	fffff097          	auipc	ra,0xfffff
    80001b72:	e7a080e7          	jalr	-390(ra) # 800009e8 <kfree>
  if (p->alarm_trapframe)
    80001b76:	1984b503          	ld	a0,408(s1)
    80001b7a:	c509                	beqz	a0,80001b84 <freeproc+0x26>
    kfree((void *)p->alarm_trapframe);
    80001b7c:	fffff097          	auipc	ra,0xfffff
    80001b80:	e6c080e7          	jalr	-404(ra) # 800009e8 <kfree>
  p->trapframe = 0;
    80001b84:	0404bc23          	sd	zero,88(s1)
  p->alarm_trapframe = 0;
    80001b88:	1804bc23          	sd	zero,408(s1)
  if (p->pagetable)
    80001b8c:	68a8                	ld	a0,80(s1)
    80001b8e:	c511                	beqz	a0,80001b9a <freeproc+0x3c>
    proc_freepagetable(p->pagetable, p->sz);
    80001b90:	64ac                	ld	a1,72(s1)
    80001b92:	00000097          	auipc	ra,0x0
    80001b96:	f7a080e7          	jalr	-134(ra) # 80001b0c <proc_freepagetable>
  p->pagetable = 0;
    80001b9a:	0404b823          	sd	zero,80(s1)
  p->sz = 0;
    80001b9e:	0404b423          	sd	zero,72(s1)
  p->pid = 0;
    80001ba2:	0204a823          	sw	zero,48(s1)
  p->parent = 0;
    80001ba6:	0204bc23          	sd	zero,56(s1)
  p->name[0] = 0;
    80001baa:	14048c23          	sb	zero,344(s1)
  p->chan = 0;
    80001bae:	0204b023          	sd	zero,32(s1)
  p->killed = 0;
    80001bb2:	0204a423          	sw	zero,40(s1)
  p->xstate = 0;
    80001bb6:	0204a623          	sw	zero,44(s1)
  p->state = UNUSED;
    80001bba:	0004ac23          	sw	zero,24(s1)
}
    80001bbe:	60e2                	ld	ra,24(sp)
    80001bc0:	6442                	ld	s0,16(sp)
    80001bc2:	64a2                	ld	s1,8(sp)
    80001bc4:	6105                	addi	sp,sp,32
    80001bc6:	8082                	ret

0000000080001bc8 <allocproc>:
{
    80001bc8:	1101                	addi	sp,sp,-32
    80001bca:	ec06                	sd	ra,24(sp)
    80001bcc:	e822                	sd	s0,16(sp)
    80001bce:	e426                	sd	s1,8(sp)
    80001bd0:	e04a                	sd	s2,0(sp)
    80001bd2:	1000                	addi	s0,sp,32
  for (p = proc; p < &proc[NPROC]; p++)
    80001bd4:	0000f497          	auipc	s1,0xf
    80001bd8:	3cc48493          	addi	s1,s1,972 # 80010fa0 <proc>
    80001bdc:	00016917          	auipc	s2,0x16
    80001be0:	dc490913          	addi	s2,s2,-572 # 800179a0 <mlfq>
    acquire(&p->lock);
    80001be4:	8526                	mv	a0,s1
    80001be6:	fffff097          	auipc	ra,0xfffff
    80001bea:	ff0080e7          	jalr	-16(ra) # 80000bd6 <acquire>
    if (p->state == UNUSED)
    80001bee:	4c9c                	lw	a5,24(s1)
    80001bf0:	cf81                	beqz	a5,80001c08 <allocproc+0x40>
      release(&p->lock);
    80001bf2:	8526                	mv	a0,s1
    80001bf4:	fffff097          	auipc	ra,0xfffff
    80001bf8:	096080e7          	jalr	150(ra) # 80000c8a <release>
  for (p = proc; p < &proc[NPROC]; p++)
    80001bfc:	1a848493          	addi	s1,s1,424
    80001c00:	ff2492e3          	bne	s1,s2,80001be4 <allocproc+0x1c>
  return 0;
    80001c04:	4481                	li	s1,0
    80001c06:	a851                	j	80001c9a <allocproc+0xd2>
  p->pid = allocpid();
    80001c08:	00000097          	auipc	ra,0x0
    80001c0c:	e22080e7          	jalr	-478(ra) # 80001a2a <allocpid>
    80001c10:	d888                	sw	a0,48(s1)
  p->state = USED;
    80001c12:	4785                	li	a5,1
    80001c14:	cc9c                	sw	a5,24(s1)
  p->level = 0;
    80001c16:	1604aa23          	sw	zero,372(s1)
  p->change_queue = 1 << p->level;
    80001c1a:	16f4ae23          	sw	a5,380(s1)
  p->in_queue = 0;
    80001c1e:	1604ac23          	sw	zero,376(s1)
  p->enter_ticks = ticks;
    80001c22:	00007797          	auipc	a5,0x7
    80001c26:	cde7a783          	lw	a5,-802(a5) # 80008900 <ticks>
    80001c2a:	18f4a023          	sw	a5,384(s1)
  p->now_ticks = 0;
    80001c2e:	1804aa23          	sw	zero,404(s1)
  p->sigalarm_status = 0;
    80001c32:	1a04a023          	sw	zero,416(s1)
  p->interval = 0;
    80001c36:	1804a823          	sw	zero,400(s1)
  p->handler = -1;
    80001c3a:	57fd                	li	a5,-1
    80001c3c:	18f4b423          	sd	a5,392(s1)
  p->alarm_trapframe = NULL;
    80001c40:	1804bc23          	sd	zero,408(s1)
  if ((p->trapframe = (struct trapframe *)kalloc()) == 0)
    80001c44:	fffff097          	auipc	ra,0xfffff
    80001c48:	ea2080e7          	jalr	-350(ra) # 80000ae6 <kalloc>
    80001c4c:	892a                	mv	s2,a0
    80001c4e:	eca8                	sd	a0,88(s1)
    80001c50:	cd21                	beqz	a0,80001ca8 <allocproc+0xe0>
  p->pagetable = proc_pagetable(p);
    80001c52:	8526                	mv	a0,s1
    80001c54:	00000097          	auipc	ra,0x0
    80001c58:	e1c080e7          	jalr	-484(ra) # 80001a70 <proc_pagetable>
    80001c5c:	892a                	mv	s2,a0
    80001c5e:	e8a8                	sd	a0,80(s1)
  if (p->pagetable == 0)
    80001c60:	c125                	beqz	a0,80001cc0 <allocproc+0xf8>
  memset(&p->context, 0, sizeof(p->context));
    80001c62:	07000613          	li	a2,112
    80001c66:	4581                	li	a1,0
    80001c68:	06048513          	addi	a0,s1,96
    80001c6c:	fffff097          	auipc	ra,0xfffff
    80001c70:	066080e7          	jalr	102(ra) # 80000cd2 <memset>
  p->context.ra = (uint64)forkret;
    80001c74:	00000797          	auipc	a5,0x0
    80001c78:	d7078793          	addi	a5,a5,-656 # 800019e4 <forkret>
    80001c7c:	f0bc                	sd	a5,96(s1)
  p->context.sp = p->kstack + PGSIZE;
    80001c7e:	60bc                	ld	a5,64(s1)
    80001c80:	6705                	lui	a4,0x1
    80001c82:	97ba                	add	a5,a5,a4
    80001c84:	f4bc                	sd	a5,104(s1)
  p->rtime = 0;
    80001c86:	1604a423          	sw	zero,360(s1)
  p->etime = 0;
    80001c8a:	1604a823          	sw	zero,368(s1)
  p->ctime = ticks;
    80001c8e:	00007797          	auipc	a5,0x7
    80001c92:	c727a783          	lw	a5,-910(a5) # 80008900 <ticks>
    80001c96:	16f4a623          	sw	a5,364(s1)
}
    80001c9a:	8526                	mv	a0,s1
    80001c9c:	60e2                	ld	ra,24(sp)
    80001c9e:	6442                	ld	s0,16(sp)
    80001ca0:	64a2                	ld	s1,8(sp)
    80001ca2:	6902                	ld	s2,0(sp)
    80001ca4:	6105                	addi	sp,sp,32
    80001ca6:	8082                	ret
    freeproc(p);
    80001ca8:	8526                	mv	a0,s1
    80001caa:	00000097          	auipc	ra,0x0
    80001cae:	eb4080e7          	jalr	-332(ra) # 80001b5e <freeproc>
    release(&p->lock);
    80001cb2:	8526                	mv	a0,s1
    80001cb4:	fffff097          	auipc	ra,0xfffff
    80001cb8:	fd6080e7          	jalr	-42(ra) # 80000c8a <release>
    return 0;
    80001cbc:	84ca                	mv	s1,s2
    80001cbe:	bff1                	j	80001c9a <allocproc+0xd2>
    freeproc(p);
    80001cc0:	8526                	mv	a0,s1
    80001cc2:	00000097          	auipc	ra,0x0
    80001cc6:	e9c080e7          	jalr	-356(ra) # 80001b5e <freeproc>
    release(&p->lock);
    80001cca:	8526                	mv	a0,s1
    80001ccc:	fffff097          	auipc	ra,0xfffff
    80001cd0:	fbe080e7          	jalr	-66(ra) # 80000c8a <release>
    return 0;
    80001cd4:	84ca                	mv	s1,s2
    80001cd6:	b7d1                	j	80001c9a <allocproc+0xd2>

0000000080001cd8 <userinit>:
{
    80001cd8:	1101                	addi	sp,sp,-32
    80001cda:	ec06                	sd	ra,24(sp)
    80001cdc:	e822                	sd	s0,16(sp)
    80001cde:	e426                	sd	s1,8(sp)
    80001ce0:	1000                	addi	s0,sp,32
  p = allocproc();
    80001ce2:	00000097          	auipc	ra,0x0
    80001ce6:	ee6080e7          	jalr	-282(ra) # 80001bc8 <allocproc>
    80001cea:	84aa                	mv	s1,a0
  initproc = p;
    80001cec:	00007797          	auipc	a5,0x7
    80001cf0:	c0a7b623          	sd	a0,-1012(a5) # 800088f8 <initproc>
  uvmfirst(p->pagetable, initcode, sizeof(initcode));
    80001cf4:	03400613          	li	a2,52
    80001cf8:	00007597          	auipc	a1,0x7
    80001cfc:	b7858593          	addi	a1,a1,-1160 # 80008870 <initcode>
    80001d00:	6928                	ld	a0,80(a0)
    80001d02:	fffff097          	auipc	ra,0xfffff
    80001d06:	654080e7          	jalr	1620(ra) # 80001356 <uvmfirst>
  p->sz = PGSIZE;
    80001d0a:	6785                	lui	a5,0x1
    80001d0c:	e4bc                	sd	a5,72(s1)
  p->trapframe->epc = 0;     // user program counter
    80001d0e:	6cb8                	ld	a4,88(s1)
    80001d10:	00073c23          	sd	zero,24(a4) # 1018 <_entry-0x7fffefe8>
  p->trapframe->sp = PGSIZE; // user stack pointer
    80001d14:	6cb8                	ld	a4,88(s1)
    80001d16:	fb1c                	sd	a5,48(a4)
  safestrcpy(p->name, "initcode", sizeof(p->name));
    80001d18:	4641                	li	a2,16
    80001d1a:	00006597          	auipc	a1,0x6
    80001d1e:	4e658593          	addi	a1,a1,1254 # 80008200 <digits+0x1c0>
    80001d22:	15848513          	addi	a0,s1,344
    80001d26:	fffff097          	auipc	ra,0xfffff
    80001d2a:	0f6080e7          	jalr	246(ra) # 80000e1c <safestrcpy>
  p->cwd = namei("/");
    80001d2e:	00006517          	auipc	a0,0x6
    80001d32:	4e250513          	addi	a0,a0,1250 # 80008210 <digits+0x1d0>
    80001d36:	00002097          	auipc	ra,0x2
    80001d3a:	442080e7          	jalr	1090(ra) # 80004178 <namei>
    80001d3e:	14a4b823          	sd	a0,336(s1)
  p->state = RUNNABLE;
    80001d42:	478d                	li	a5,3
    80001d44:	cc9c                	sw	a5,24(s1)
  release(&p->lock);
    80001d46:	8526                	mv	a0,s1
    80001d48:	fffff097          	auipc	ra,0xfffff
    80001d4c:	f42080e7          	jalr	-190(ra) # 80000c8a <release>
}
    80001d50:	60e2                	ld	ra,24(sp)
    80001d52:	6442                	ld	s0,16(sp)
    80001d54:	64a2                	ld	s1,8(sp)
    80001d56:	6105                	addi	sp,sp,32
    80001d58:	8082                	ret

0000000080001d5a <growproc>:
{
    80001d5a:	1101                	addi	sp,sp,-32
    80001d5c:	ec06                	sd	ra,24(sp)
    80001d5e:	e822                	sd	s0,16(sp)
    80001d60:	e426                	sd	s1,8(sp)
    80001d62:	e04a                	sd	s2,0(sp)
    80001d64:	1000                	addi	s0,sp,32
    80001d66:	892a                	mv	s2,a0
  struct proc *p = myproc();
    80001d68:	00000097          	auipc	ra,0x0
    80001d6c:	c44080e7          	jalr	-956(ra) # 800019ac <myproc>
    80001d70:	84aa                	mv	s1,a0
  sz = p->sz;
    80001d72:	652c                	ld	a1,72(a0)
  if (n > 0)
    80001d74:	01204c63          	bgtz	s2,80001d8c <growproc+0x32>
  else if (n < 0)
    80001d78:	02094663          	bltz	s2,80001da4 <growproc+0x4a>
  p->sz = sz;
    80001d7c:	e4ac                	sd	a1,72(s1)
  return 0;
    80001d7e:	4501                	li	a0,0
}
    80001d80:	60e2                	ld	ra,24(sp)
    80001d82:	6442                	ld	s0,16(sp)
    80001d84:	64a2                	ld	s1,8(sp)
    80001d86:	6902                	ld	s2,0(sp)
    80001d88:	6105                	addi	sp,sp,32
    80001d8a:	8082                	ret
    if ((sz = uvmalloc(p->pagetable, sz, sz + n, PTE_W)) == 0)
    80001d8c:	4691                	li	a3,4
    80001d8e:	00b90633          	add	a2,s2,a1
    80001d92:	6928                	ld	a0,80(a0)
    80001d94:	fffff097          	auipc	ra,0xfffff
    80001d98:	67c080e7          	jalr	1660(ra) # 80001410 <uvmalloc>
    80001d9c:	85aa                	mv	a1,a0
    80001d9e:	fd79                	bnez	a0,80001d7c <growproc+0x22>
      return -1;
    80001da0:	557d                	li	a0,-1
    80001da2:	bff9                	j	80001d80 <growproc+0x26>
    sz = uvmdealloc(p->pagetable, sz, sz + n);
    80001da4:	00b90633          	add	a2,s2,a1
    80001da8:	6928                	ld	a0,80(a0)
    80001daa:	fffff097          	auipc	ra,0xfffff
    80001dae:	61e080e7          	jalr	1566(ra) # 800013c8 <uvmdealloc>
    80001db2:	85aa                	mv	a1,a0
    80001db4:	b7e1                	j	80001d7c <growproc+0x22>

0000000080001db6 <fork>:
{
    80001db6:	7139                	addi	sp,sp,-64
    80001db8:	fc06                	sd	ra,56(sp)
    80001dba:	f822                	sd	s0,48(sp)
    80001dbc:	f426                	sd	s1,40(sp)
    80001dbe:	f04a                	sd	s2,32(sp)
    80001dc0:	ec4e                	sd	s3,24(sp)
    80001dc2:	e852                	sd	s4,16(sp)
    80001dc4:	e456                	sd	s5,8(sp)
    80001dc6:	0080                	addi	s0,sp,64
  struct proc *p = myproc();
    80001dc8:	00000097          	auipc	ra,0x0
    80001dcc:	be4080e7          	jalr	-1052(ra) # 800019ac <myproc>
    80001dd0:	8aaa                	mv	s5,a0
  if ((np = allocproc()) == 0)
    80001dd2:	00000097          	auipc	ra,0x0
    80001dd6:	df6080e7          	jalr	-522(ra) # 80001bc8 <allocproc>
    80001dda:	10050c63          	beqz	a0,80001ef2 <fork+0x13c>
    80001dde:	8a2a                	mv	s4,a0
  if (uvmcopy(p->pagetable, np->pagetable, p->sz) < 0)
    80001de0:	048ab603          	ld	a2,72(s5)
    80001de4:	692c                	ld	a1,80(a0)
    80001de6:	050ab503          	ld	a0,80(s5)
    80001dea:	fffff097          	auipc	ra,0xfffff
    80001dee:	77e080e7          	jalr	1918(ra) # 80001568 <uvmcopy>
    80001df2:	04054863          	bltz	a0,80001e42 <fork+0x8c>
  np->sz = p->sz;
    80001df6:	048ab783          	ld	a5,72(s5)
    80001dfa:	04fa3423          	sd	a5,72(s4)
  *(np->trapframe) = *(p->trapframe);
    80001dfe:	058ab683          	ld	a3,88(s5)
    80001e02:	87b6                	mv	a5,a3
    80001e04:	058a3703          	ld	a4,88(s4)
    80001e08:	12068693          	addi	a3,a3,288
    80001e0c:	0007b803          	ld	a6,0(a5) # 1000 <_entry-0x7ffff000>
    80001e10:	6788                	ld	a0,8(a5)
    80001e12:	6b8c                	ld	a1,16(a5)
    80001e14:	6f90                	ld	a2,24(a5)
    80001e16:	01073023          	sd	a6,0(a4)
    80001e1a:	e708                	sd	a0,8(a4)
    80001e1c:	eb0c                	sd	a1,16(a4)
    80001e1e:	ef10                	sd	a2,24(a4)
    80001e20:	02078793          	addi	a5,a5,32
    80001e24:	02070713          	addi	a4,a4,32
    80001e28:	fed792e3          	bne	a5,a3,80001e0c <fork+0x56>
  np->trapframe->a0 = 0;
    80001e2c:	058a3783          	ld	a5,88(s4)
    80001e30:	0607b823          	sd	zero,112(a5)
  for (i = 0; i < NOFILE; i++)
    80001e34:	0d0a8493          	addi	s1,s5,208
    80001e38:	0d0a0913          	addi	s2,s4,208
    80001e3c:	150a8993          	addi	s3,s5,336
    80001e40:	a00d                	j	80001e62 <fork+0xac>
    freeproc(np);
    80001e42:	8552                	mv	a0,s4
    80001e44:	00000097          	auipc	ra,0x0
    80001e48:	d1a080e7          	jalr	-742(ra) # 80001b5e <freeproc>
    release(&np->lock);
    80001e4c:	8552                	mv	a0,s4
    80001e4e:	fffff097          	auipc	ra,0xfffff
    80001e52:	e3c080e7          	jalr	-452(ra) # 80000c8a <release>
    return -1;
    80001e56:	597d                	li	s2,-1
    80001e58:	a059                	j	80001ede <fork+0x128>
  for (i = 0; i < NOFILE; i++)
    80001e5a:	04a1                	addi	s1,s1,8
    80001e5c:	0921                	addi	s2,s2,8
    80001e5e:	01348b63          	beq	s1,s3,80001e74 <fork+0xbe>
    if (p->ofile[i])
    80001e62:	6088                	ld	a0,0(s1)
    80001e64:	d97d                	beqz	a0,80001e5a <fork+0xa4>
      np->ofile[i] = filedup(p->ofile[i]);
    80001e66:	00003097          	auipc	ra,0x3
    80001e6a:	9a8080e7          	jalr	-1624(ra) # 8000480e <filedup>
    80001e6e:	00a93023          	sd	a0,0(s2)
    80001e72:	b7e5                	j	80001e5a <fork+0xa4>
  np->cwd = idup(p->cwd);
    80001e74:	150ab503          	ld	a0,336(s5)
    80001e78:	00002097          	auipc	ra,0x2
    80001e7c:	b16080e7          	jalr	-1258(ra) # 8000398e <idup>
    80001e80:	14aa3823          	sd	a0,336(s4)
  safestrcpy(np->name, p->name, sizeof(p->name));
    80001e84:	4641                	li	a2,16
    80001e86:	158a8593          	addi	a1,s5,344
    80001e8a:	158a0513          	addi	a0,s4,344
    80001e8e:	fffff097          	auipc	ra,0xfffff
    80001e92:	f8e080e7          	jalr	-114(ra) # 80000e1c <safestrcpy>
  pid = np->pid;
    80001e96:	030a2903          	lw	s2,48(s4)
  release(&np->lock);
    80001e9a:	8552                	mv	a0,s4
    80001e9c:	fffff097          	auipc	ra,0xfffff
    80001ea0:	dee080e7          	jalr	-530(ra) # 80000c8a <release>
  acquire(&wait_lock);
    80001ea4:	0000f497          	auipc	s1,0xf
    80001ea8:	ce448493          	addi	s1,s1,-796 # 80010b88 <wait_lock>
    80001eac:	8526                	mv	a0,s1
    80001eae:	fffff097          	auipc	ra,0xfffff
    80001eb2:	d28080e7          	jalr	-728(ra) # 80000bd6 <acquire>
  np->parent = p;
    80001eb6:	035a3c23          	sd	s5,56(s4)
  release(&wait_lock);
    80001eba:	8526                	mv	a0,s1
    80001ebc:	fffff097          	auipc	ra,0xfffff
    80001ec0:	dce080e7          	jalr	-562(ra) # 80000c8a <release>
  acquire(&np->lock);
    80001ec4:	8552                	mv	a0,s4
    80001ec6:	fffff097          	auipc	ra,0xfffff
    80001eca:	d10080e7          	jalr	-752(ra) # 80000bd6 <acquire>
  np->state = RUNNABLE;
    80001ece:	478d                	li	a5,3
    80001ed0:	00fa2c23          	sw	a5,24(s4)
  release(&np->lock);
    80001ed4:	8552                	mv	a0,s4
    80001ed6:	fffff097          	auipc	ra,0xfffff
    80001eda:	db4080e7          	jalr	-588(ra) # 80000c8a <release>
}
    80001ede:	854a                	mv	a0,s2
    80001ee0:	70e2                	ld	ra,56(sp)
    80001ee2:	7442                	ld	s0,48(sp)
    80001ee4:	74a2                	ld	s1,40(sp)
    80001ee6:	7902                	ld	s2,32(sp)
    80001ee8:	69e2                	ld	s3,24(sp)
    80001eea:	6a42                	ld	s4,16(sp)
    80001eec:	6aa2                	ld	s5,8(sp)
    80001eee:	6121                	addi	sp,sp,64
    80001ef0:	8082                	ret
    return -1;
    80001ef2:	597d                	li	s2,-1
    80001ef4:	b7ed                	j	80001ede <fork+0x128>

0000000080001ef6 <scheduler>:
{
    80001ef6:	7139                	addi	sp,sp,-64
    80001ef8:	fc06                	sd	ra,56(sp)
    80001efa:	f822                	sd	s0,48(sp)
    80001efc:	f426                	sd	s1,40(sp)
    80001efe:	f04a                	sd	s2,32(sp)
    80001f00:	ec4e                	sd	s3,24(sp)
    80001f02:	e852                	sd	s4,16(sp)
    80001f04:	e456                	sd	s5,8(sp)
    80001f06:	e05a                	sd	s6,0(sp)
    80001f08:	0080                	addi	s0,sp,64
    80001f0a:	8792                	mv	a5,tp
  int id = r_tp();
    80001f0c:	2781                	sext.w	a5,a5
  c->proc = 0;
    80001f0e:	00779a93          	slli	s5,a5,0x7
    80001f12:	0000f717          	auipc	a4,0xf
    80001f16:	c5e70713          	addi	a4,a4,-930 # 80010b70 <pid_lock>
    80001f1a:	9756                	add	a4,a4,s5
    80001f1c:	02073823          	sd	zero,48(a4)
        swtch(&c->context, &p->context);
    80001f20:	0000f717          	auipc	a4,0xf
    80001f24:	c8870713          	addi	a4,a4,-888 # 80010ba8 <cpus+0x8>
    80001f28:	9aba                	add	s5,s5,a4
      if (p->state == RUNNABLE)
    80001f2a:	498d                	li	s3,3
        p->state = RUNNING;
    80001f2c:	4b11                	li	s6,4
        c->proc = p;
    80001f2e:	079e                	slli	a5,a5,0x7
    80001f30:	0000fa17          	auipc	s4,0xf
    80001f34:	c40a0a13          	addi	s4,s4,-960 # 80010b70 <pid_lock>
    80001f38:	9a3e                	add	s4,s4,a5
    for (p = proc; p < &proc[NPROC]; p++)
    80001f3a:	00016917          	auipc	s2,0x16
    80001f3e:	a6690913          	addi	s2,s2,-1434 # 800179a0 <mlfq>
  asm volatile("csrr %0, sstatus"
    80001f42:	100027f3          	csrr	a5,sstatus
  w_sstatus(r_sstatus() | SSTATUS_SIE);
    80001f46:	0027e793          	ori	a5,a5,2
  asm volatile("csrw sstatus, %0"
    80001f4a:	10079073          	csrw	sstatus,a5
    80001f4e:	0000f497          	auipc	s1,0xf
    80001f52:	05248493          	addi	s1,s1,82 # 80010fa0 <proc>
    80001f56:	a811                	j	80001f6a <scheduler+0x74>
      release(&p->lock);
    80001f58:	8526                	mv	a0,s1
    80001f5a:	fffff097          	auipc	ra,0xfffff
    80001f5e:	d30080e7          	jalr	-720(ra) # 80000c8a <release>
    for (p = proc; p < &proc[NPROC]; p++)
    80001f62:	1a848493          	addi	s1,s1,424
    80001f66:	fd248ee3          	beq	s1,s2,80001f42 <scheduler+0x4c>
      acquire(&p->lock);
    80001f6a:	8526                	mv	a0,s1
    80001f6c:	fffff097          	auipc	ra,0xfffff
    80001f70:	c6a080e7          	jalr	-918(ra) # 80000bd6 <acquire>
      if (p->state == RUNNABLE)
    80001f74:	4c9c                	lw	a5,24(s1)
    80001f76:	ff3791e3          	bne	a5,s3,80001f58 <scheduler+0x62>
        p->state = RUNNING;
    80001f7a:	0164ac23          	sw	s6,24(s1)
        c->proc = p;
    80001f7e:	029a3823          	sd	s1,48(s4)
        swtch(&c->context, &p->context);
    80001f82:	06048593          	addi	a1,s1,96
    80001f86:	8556                	mv	a0,s5
    80001f88:	00001097          	auipc	ra,0x1
    80001f8c:	83a080e7          	jalr	-1990(ra) # 800027c2 <swtch>
        c->proc = 0;
    80001f90:	020a3823          	sd	zero,48(s4)
    80001f94:	b7d1                	j	80001f58 <scheduler+0x62>

0000000080001f96 <sched>:
{
    80001f96:	7179                	addi	sp,sp,-48
    80001f98:	f406                	sd	ra,40(sp)
    80001f9a:	f022                	sd	s0,32(sp)
    80001f9c:	ec26                	sd	s1,24(sp)
    80001f9e:	e84a                	sd	s2,16(sp)
    80001fa0:	e44e                	sd	s3,8(sp)
    80001fa2:	1800                	addi	s0,sp,48
  struct proc *p = myproc();
    80001fa4:	00000097          	auipc	ra,0x0
    80001fa8:	a08080e7          	jalr	-1528(ra) # 800019ac <myproc>
    80001fac:	84aa                	mv	s1,a0
  if (!holding(&p->lock))
    80001fae:	fffff097          	auipc	ra,0xfffff
    80001fb2:	bae080e7          	jalr	-1106(ra) # 80000b5c <holding>
    80001fb6:	c93d                	beqz	a0,8000202c <sched+0x96>
  asm volatile("mv %0, tp"
    80001fb8:	8792                	mv	a5,tp
  if (mycpu()->noff != 1)
    80001fba:	2781                	sext.w	a5,a5
    80001fbc:	079e                	slli	a5,a5,0x7
    80001fbe:	0000f717          	auipc	a4,0xf
    80001fc2:	bb270713          	addi	a4,a4,-1102 # 80010b70 <pid_lock>
    80001fc6:	97ba                	add	a5,a5,a4
    80001fc8:	0a87a703          	lw	a4,168(a5)
    80001fcc:	4785                	li	a5,1
    80001fce:	06f71763          	bne	a4,a5,8000203c <sched+0xa6>
  if (p->state == RUNNING)
    80001fd2:	4c98                	lw	a4,24(s1)
    80001fd4:	4791                	li	a5,4
    80001fd6:	06f70b63          	beq	a4,a5,8000204c <sched+0xb6>
  asm volatile("csrr %0, sstatus"
    80001fda:	100027f3          	csrr	a5,sstatus
  return (x & SSTATUS_SIE) != 0;
    80001fde:	8b89                	andi	a5,a5,2
  if (intr_get())
    80001fe0:	efb5                	bnez	a5,8000205c <sched+0xc6>
  asm volatile("mv %0, tp"
    80001fe2:	8792                	mv	a5,tp
  intena = mycpu()->intena;
    80001fe4:	0000f917          	auipc	s2,0xf
    80001fe8:	b8c90913          	addi	s2,s2,-1140 # 80010b70 <pid_lock>
    80001fec:	2781                	sext.w	a5,a5
    80001fee:	079e                	slli	a5,a5,0x7
    80001ff0:	97ca                	add	a5,a5,s2
    80001ff2:	0ac7a983          	lw	s3,172(a5)
    80001ff6:	8792                	mv	a5,tp
  swtch(&p->context, &mycpu()->context);
    80001ff8:	2781                	sext.w	a5,a5
    80001ffa:	079e                	slli	a5,a5,0x7
    80001ffc:	0000f597          	auipc	a1,0xf
    80002000:	bac58593          	addi	a1,a1,-1108 # 80010ba8 <cpus+0x8>
    80002004:	95be                	add	a1,a1,a5
    80002006:	06048513          	addi	a0,s1,96
    8000200a:	00000097          	auipc	ra,0x0
    8000200e:	7b8080e7          	jalr	1976(ra) # 800027c2 <swtch>
    80002012:	8792                	mv	a5,tp
  mycpu()->intena = intena;
    80002014:	2781                	sext.w	a5,a5
    80002016:	079e                	slli	a5,a5,0x7
    80002018:	993e                	add	s2,s2,a5
    8000201a:	0b392623          	sw	s3,172(s2)
}
    8000201e:	70a2                	ld	ra,40(sp)
    80002020:	7402                	ld	s0,32(sp)
    80002022:	64e2                	ld	s1,24(sp)
    80002024:	6942                	ld	s2,16(sp)
    80002026:	69a2                	ld	s3,8(sp)
    80002028:	6145                	addi	sp,sp,48
    8000202a:	8082                	ret
    panic("sched p->lock");
    8000202c:	00006517          	auipc	a0,0x6
    80002030:	1ec50513          	addi	a0,a0,492 # 80008218 <digits+0x1d8>
    80002034:	ffffe097          	auipc	ra,0xffffe
    80002038:	50c080e7          	jalr	1292(ra) # 80000540 <panic>
    panic("sched locks");
    8000203c:	00006517          	auipc	a0,0x6
    80002040:	1ec50513          	addi	a0,a0,492 # 80008228 <digits+0x1e8>
    80002044:	ffffe097          	auipc	ra,0xffffe
    80002048:	4fc080e7          	jalr	1276(ra) # 80000540 <panic>
    panic("sched running");
    8000204c:	00006517          	auipc	a0,0x6
    80002050:	1ec50513          	addi	a0,a0,492 # 80008238 <digits+0x1f8>
    80002054:	ffffe097          	auipc	ra,0xffffe
    80002058:	4ec080e7          	jalr	1260(ra) # 80000540 <panic>
    panic("sched interruptible");
    8000205c:	00006517          	auipc	a0,0x6
    80002060:	1ec50513          	addi	a0,a0,492 # 80008248 <digits+0x208>
    80002064:	ffffe097          	auipc	ra,0xffffe
    80002068:	4dc080e7          	jalr	1244(ra) # 80000540 <panic>

000000008000206c <yield>:
{
    8000206c:	1101                	addi	sp,sp,-32
    8000206e:	ec06                	sd	ra,24(sp)
    80002070:	e822                	sd	s0,16(sp)
    80002072:	e426                	sd	s1,8(sp)
    80002074:	1000                	addi	s0,sp,32
  struct proc *p = myproc();
    80002076:	00000097          	auipc	ra,0x0
    8000207a:	936080e7          	jalr	-1738(ra) # 800019ac <myproc>
    8000207e:	84aa                	mv	s1,a0
  acquire(&p->lock);
    80002080:	fffff097          	auipc	ra,0xfffff
    80002084:	b56080e7          	jalr	-1194(ra) # 80000bd6 <acquire>
  p->state = RUNNABLE;
    80002088:	478d                	li	a5,3
    8000208a:	cc9c                	sw	a5,24(s1)
  sched();
    8000208c:	00000097          	auipc	ra,0x0
    80002090:	f0a080e7          	jalr	-246(ra) # 80001f96 <sched>
  release(&p->lock);
    80002094:	8526                	mv	a0,s1
    80002096:	fffff097          	auipc	ra,0xfffff
    8000209a:	bf4080e7          	jalr	-1036(ra) # 80000c8a <release>
}
    8000209e:	60e2                	ld	ra,24(sp)
    800020a0:	6442                	ld	s0,16(sp)
    800020a2:	64a2                	ld	s1,8(sp)
    800020a4:	6105                	addi	sp,sp,32
    800020a6:	8082                	ret

00000000800020a8 <sleep>:

// Atomically release lock and sleep on chan.
// Reacquires lock when awakened.
void sleep(void *chan, struct spinlock *lk)
{
    800020a8:	7179                	addi	sp,sp,-48
    800020aa:	f406                	sd	ra,40(sp)
    800020ac:	f022                	sd	s0,32(sp)
    800020ae:	ec26                	sd	s1,24(sp)
    800020b0:	e84a                	sd	s2,16(sp)
    800020b2:	e44e                	sd	s3,8(sp)
    800020b4:	1800                	addi	s0,sp,48
    800020b6:	89aa                	mv	s3,a0
    800020b8:	892e                	mv	s2,a1
  struct proc *p = myproc();
    800020ba:	00000097          	auipc	ra,0x0
    800020be:	8f2080e7          	jalr	-1806(ra) # 800019ac <myproc>
    800020c2:	84aa                	mv	s1,a0
  // Once we hold p->lock, we can be
  // guaranteed that we won't miss any wakeup
  // (wakeup locks p->lock),
  // so it's okay to release lk.

  acquire(&p->lock); // DOC: sleeplock1
    800020c4:	fffff097          	auipc	ra,0xfffff
    800020c8:	b12080e7          	jalr	-1262(ra) # 80000bd6 <acquire>
  release(lk);
    800020cc:	854a                	mv	a0,s2
    800020ce:	fffff097          	auipc	ra,0xfffff
    800020d2:	bbc080e7          	jalr	-1092(ra) # 80000c8a <release>

  // Go to sleep.
  p->chan = chan;
    800020d6:	0334b023          	sd	s3,32(s1)
  p->state = SLEEPING;
    800020da:	4789                	li	a5,2
    800020dc:	cc9c                	sw	a5,24(s1)

  sched();
    800020de:	00000097          	auipc	ra,0x0
    800020e2:	eb8080e7          	jalr	-328(ra) # 80001f96 <sched>

  // Tidy up.
  p->chan = 0;
    800020e6:	0204b023          	sd	zero,32(s1)

  // Reacquire original lock.
  release(&p->lock);
    800020ea:	8526                	mv	a0,s1
    800020ec:	fffff097          	auipc	ra,0xfffff
    800020f0:	b9e080e7          	jalr	-1122(ra) # 80000c8a <release>
  acquire(lk);
    800020f4:	854a                	mv	a0,s2
    800020f6:	fffff097          	auipc	ra,0xfffff
    800020fa:	ae0080e7          	jalr	-1312(ra) # 80000bd6 <acquire>
}
    800020fe:	70a2                	ld	ra,40(sp)
    80002100:	7402                	ld	s0,32(sp)
    80002102:	64e2                	ld	s1,24(sp)
    80002104:	6942                	ld	s2,16(sp)
    80002106:	69a2                	ld	s3,8(sp)
    80002108:	6145                	addi	sp,sp,48
    8000210a:	8082                	ret

000000008000210c <wakeup>:

// Wake up all processes sleeping on chan.
// Must be called without any p->lock.
void wakeup(void *chan)
{
    8000210c:	7139                	addi	sp,sp,-64
    8000210e:	fc06                	sd	ra,56(sp)
    80002110:	f822                	sd	s0,48(sp)
    80002112:	f426                	sd	s1,40(sp)
    80002114:	f04a                	sd	s2,32(sp)
    80002116:	ec4e                	sd	s3,24(sp)
    80002118:	e852                	sd	s4,16(sp)
    8000211a:	e456                	sd	s5,8(sp)
    8000211c:	0080                	addi	s0,sp,64
    8000211e:	8a2a                	mv	s4,a0
  struct proc *p;

  for (p = proc; p < &proc[NPROC]; p++)
    80002120:	0000f497          	auipc	s1,0xf
    80002124:	e8048493          	addi	s1,s1,-384 # 80010fa0 <proc>
  {
    if (p != myproc())
    {
      acquire(&p->lock);
      if (p->state == SLEEPING && p->chan == chan)
    80002128:	4989                	li	s3,2
      {
        p->state = RUNNABLE;
    8000212a:	4a8d                	li	s5,3
  for (p = proc; p < &proc[NPROC]; p++)
    8000212c:	00016917          	auipc	s2,0x16
    80002130:	87490913          	addi	s2,s2,-1932 # 800179a0 <mlfq>
    80002134:	a811                	j	80002148 <wakeup+0x3c>
      }
      release(&p->lock);
    80002136:	8526                	mv	a0,s1
    80002138:	fffff097          	auipc	ra,0xfffff
    8000213c:	b52080e7          	jalr	-1198(ra) # 80000c8a <release>
  for (p = proc; p < &proc[NPROC]; p++)
    80002140:	1a848493          	addi	s1,s1,424
    80002144:	03248663          	beq	s1,s2,80002170 <wakeup+0x64>
    if (p != myproc())
    80002148:	00000097          	auipc	ra,0x0
    8000214c:	864080e7          	jalr	-1948(ra) # 800019ac <myproc>
    80002150:	fea488e3          	beq	s1,a0,80002140 <wakeup+0x34>
      acquire(&p->lock);
    80002154:	8526                	mv	a0,s1
    80002156:	fffff097          	auipc	ra,0xfffff
    8000215a:	a80080e7          	jalr	-1408(ra) # 80000bd6 <acquire>
      if (p->state == SLEEPING && p->chan == chan)
    8000215e:	4c9c                	lw	a5,24(s1)
    80002160:	fd379be3          	bne	a5,s3,80002136 <wakeup+0x2a>
    80002164:	709c                	ld	a5,32(s1)
    80002166:	fd4798e3          	bne	a5,s4,80002136 <wakeup+0x2a>
        p->state = RUNNABLE;
    8000216a:	0154ac23          	sw	s5,24(s1)
    8000216e:	b7e1                	j	80002136 <wakeup+0x2a>
    }
  }
}
    80002170:	70e2                	ld	ra,56(sp)
    80002172:	7442                	ld	s0,48(sp)
    80002174:	74a2                	ld	s1,40(sp)
    80002176:	7902                	ld	s2,32(sp)
    80002178:	69e2                	ld	s3,24(sp)
    8000217a:	6a42                	ld	s4,16(sp)
    8000217c:	6aa2                	ld	s5,8(sp)
    8000217e:	6121                	addi	sp,sp,64
    80002180:	8082                	ret

0000000080002182 <reparent>:
{
    80002182:	7179                	addi	sp,sp,-48
    80002184:	f406                	sd	ra,40(sp)
    80002186:	f022                	sd	s0,32(sp)
    80002188:	ec26                	sd	s1,24(sp)
    8000218a:	e84a                	sd	s2,16(sp)
    8000218c:	e44e                	sd	s3,8(sp)
    8000218e:	e052                	sd	s4,0(sp)
    80002190:	1800                	addi	s0,sp,48
    80002192:	892a                	mv	s2,a0
  for (pp = proc; pp < &proc[NPROC]; pp++)
    80002194:	0000f497          	auipc	s1,0xf
    80002198:	e0c48493          	addi	s1,s1,-500 # 80010fa0 <proc>
      pp->parent = initproc;
    8000219c:	00006a17          	auipc	s4,0x6
    800021a0:	75ca0a13          	addi	s4,s4,1884 # 800088f8 <initproc>
  for (pp = proc; pp < &proc[NPROC]; pp++)
    800021a4:	00015997          	auipc	s3,0x15
    800021a8:	7fc98993          	addi	s3,s3,2044 # 800179a0 <mlfq>
    800021ac:	a029                	j	800021b6 <reparent+0x34>
    800021ae:	1a848493          	addi	s1,s1,424
    800021b2:	01348d63          	beq	s1,s3,800021cc <reparent+0x4a>
    if (pp->parent == p)
    800021b6:	7c9c                	ld	a5,56(s1)
    800021b8:	ff279be3          	bne	a5,s2,800021ae <reparent+0x2c>
      pp->parent = initproc;
    800021bc:	000a3503          	ld	a0,0(s4)
    800021c0:	fc88                	sd	a0,56(s1)
      wakeup(initproc);
    800021c2:	00000097          	auipc	ra,0x0
    800021c6:	f4a080e7          	jalr	-182(ra) # 8000210c <wakeup>
    800021ca:	b7d5                	j	800021ae <reparent+0x2c>
}
    800021cc:	70a2                	ld	ra,40(sp)
    800021ce:	7402                	ld	s0,32(sp)
    800021d0:	64e2                	ld	s1,24(sp)
    800021d2:	6942                	ld	s2,16(sp)
    800021d4:	69a2                	ld	s3,8(sp)
    800021d6:	6a02                	ld	s4,0(sp)
    800021d8:	6145                	addi	sp,sp,48
    800021da:	8082                	ret

00000000800021dc <exit>:
{
    800021dc:	7179                	addi	sp,sp,-48
    800021de:	f406                	sd	ra,40(sp)
    800021e0:	f022                	sd	s0,32(sp)
    800021e2:	ec26                	sd	s1,24(sp)
    800021e4:	e84a                	sd	s2,16(sp)
    800021e6:	e44e                	sd	s3,8(sp)
    800021e8:	e052                	sd	s4,0(sp)
    800021ea:	1800                	addi	s0,sp,48
    800021ec:	8a2a                	mv	s4,a0
  struct proc *p = myproc();
    800021ee:	fffff097          	auipc	ra,0xfffff
    800021f2:	7be080e7          	jalr	1982(ra) # 800019ac <myproc>
    800021f6:	89aa                	mv	s3,a0
  if (p == initproc)
    800021f8:	00006797          	auipc	a5,0x6
    800021fc:	7007b783          	ld	a5,1792(a5) # 800088f8 <initproc>
    80002200:	0d050493          	addi	s1,a0,208
    80002204:	15050913          	addi	s2,a0,336
    80002208:	02a79363          	bne	a5,a0,8000222e <exit+0x52>
    panic("init exiting");
    8000220c:	00006517          	auipc	a0,0x6
    80002210:	05450513          	addi	a0,a0,84 # 80008260 <digits+0x220>
    80002214:	ffffe097          	auipc	ra,0xffffe
    80002218:	32c080e7          	jalr	812(ra) # 80000540 <panic>
      fileclose(f);
    8000221c:	00002097          	auipc	ra,0x2
    80002220:	644080e7          	jalr	1604(ra) # 80004860 <fileclose>
      p->ofile[fd] = 0;
    80002224:	0004b023          	sd	zero,0(s1)
  for (int fd = 0; fd < NOFILE; fd++)
    80002228:	04a1                	addi	s1,s1,8
    8000222a:	01248563          	beq	s1,s2,80002234 <exit+0x58>
    if (p->ofile[fd])
    8000222e:	6088                	ld	a0,0(s1)
    80002230:	f575                	bnez	a0,8000221c <exit+0x40>
    80002232:	bfdd                	j	80002228 <exit+0x4c>
  begin_op();
    80002234:	00002097          	auipc	ra,0x2
    80002238:	164080e7          	jalr	356(ra) # 80004398 <begin_op>
  iput(p->cwd);
    8000223c:	1509b503          	ld	a0,336(s3)
    80002240:	00002097          	auipc	ra,0x2
    80002244:	946080e7          	jalr	-1722(ra) # 80003b86 <iput>
  end_op();
    80002248:	00002097          	auipc	ra,0x2
    8000224c:	1ce080e7          	jalr	462(ra) # 80004416 <end_op>
  p->cwd = 0;
    80002250:	1409b823          	sd	zero,336(s3)
  acquire(&wait_lock);
    80002254:	0000f497          	auipc	s1,0xf
    80002258:	93448493          	addi	s1,s1,-1740 # 80010b88 <wait_lock>
    8000225c:	8526                	mv	a0,s1
    8000225e:	fffff097          	auipc	ra,0xfffff
    80002262:	978080e7          	jalr	-1672(ra) # 80000bd6 <acquire>
  reparent(p);
    80002266:	854e                	mv	a0,s3
    80002268:	00000097          	auipc	ra,0x0
    8000226c:	f1a080e7          	jalr	-230(ra) # 80002182 <reparent>
  wakeup(p->parent);
    80002270:	0389b503          	ld	a0,56(s3)
    80002274:	00000097          	auipc	ra,0x0
    80002278:	e98080e7          	jalr	-360(ra) # 8000210c <wakeup>
  acquire(&p->lock);
    8000227c:	854e                	mv	a0,s3
    8000227e:	fffff097          	auipc	ra,0xfffff
    80002282:	958080e7          	jalr	-1704(ra) # 80000bd6 <acquire>
  p->xstate = status;
    80002286:	0349a623          	sw	s4,44(s3)
  p->state = ZOMBIE;
    8000228a:	4795                	li	a5,5
    8000228c:	00f9ac23          	sw	a5,24(s3)
  p->etime = ticks;
    80002290:	00006797          	auipc	a5,0x6
    80002294:	6707a783          	lw	a5,1648(a5) # 80008900 <ticks>
    80002298:	16f9a823          	sw	a5,368(s3)
  release(&wait_lock);
    8000229c:	8526                	mv	a0,s1
    8000229e:	fffff097          	auipc	ra,0xfffff
    800022a2:	9ec080e7          	jalr	-1556(ra) # 80000c8a <release>
  sched();
    800022a6:	00000097          	auipc	ra,0x0
    800022aa:	cf0080e7          	jalr	-784(ra) # 80001f96 <sched>
  panic("zombie exit");
    800022ae:	00006517          	auipc	a0,0x6
    800022b2:	fc250513          	addi	a0,a0,-62 # 80008270 <digits+0x230>
    800022b6:	ffffe097          	auipc	ra,0xffffe
    800022ba:	28a080e7          	jalr	650(ra) # 80000540 <panic>

00000000800022be <kill>:

// Kill the process with the given pid.
// The victim won't exit until it tries to return
// to user space (see usertrap() in trap.c).
int kill(int pid)
{
    800022be:	7179                	addi	sp,sp,-48
    800022c0:	f406                	sd	ra,40(sp)
    800022c2:	f022                	sd	s0,32(sp)
    800022c4:	ec26                	sd	s1,24(sp)
    800022c6:	e84a                	sd	s2,16(sp)
    800022c8:	e44e                	sd	s3,8(sp)
    800022ca:	1800                	addi	s0,sp,48
    800022cc:	892a                	mv	s2,a0
  struct proc *p;

  for (p = proc; p < &proc[NPROC]; p++)
    800022ce:	0000f497          	auipc	s1,0xf
    800022d2:	cd248493          	addi	s1,s1,-814 # 80010fa0 <proc>
    800022d6:	00015997          	auipc	s3,0x15
    800022da:	6ca98993          	addi	s3,s3,1738 # 800179a0 <mlfq>
  {
    acquire(&p->lock);
    800022de:	8526                	mv	a0,s1
    800022e0:	fffff097          	auipc	ra,0xfffff
    800022e4:	8f6080e7          	jalr	-1802(ra) # 80000bd6 <acquire>
    if (p->pid == pid)
    800022e8:	589c                	lw	a5,48(s1)
    800022ea:	01278d63          	beq	a5,s2,80002304 <kill+0x46>
        p->state = RUNNABLE;
      }
      release(&p->lock);
      return 0;
    }
    release(&p->lock);
    800022ee:	8526                	mv	a0,s1
    800022f0:	fffff097          	auipc	ra,0xfffff
    800022f4:	99a080e7          	jalr	-1638(ra) # 80000c8a <release>
  for (p = proc; p < &proc[NPROC]; p++)
    800022f8:	1a848493          	addi	s1,s1,424
    800022fc:	ff3491e3          	bne	s1,s3,800022de <kill+0x20>
  }
  return -1;
    80002300:	557d                	li	a0,-1
    80002302:	a829                	j	8000231c <kill+0x5e>
      p->killed = 1;
    80002304:	4785                	li	a5,1
    80002306:	d49c                	sw	a5,40(s1)
      if (p->state == SLEEPING)
    80002308:	4c98                	lw	a4,24(s1)
    8000230a:	4789                	li	a5,2
    8000230c:	00f70f63          	beq	a4,a5,8000232a <kill+0x6c>
      release(&p->lock);
    80002310:	8526                	mv	a0,s1
    80002312:	fffff097          	auipc	ra,0xfffff
    80002316:	978080e7          	jalr	-1672(ra) # 80000c8a <release>
      return 0;
    8000231a:	4501                	li	a0,0
}
    8000231c:	70a2                	ld	ra,40(sp)
    8000231e:	7402                	ld	s0,32(sp)
    80002320:	64e2                	ld	s1,24(sp)
    80002322:	6942                	ld	s2,16(sp)
    80002324:	69a2                	ld	s3,8(sp)
    80002326:	6145                	addi	sp,sp,48
    80002328:	8082                	ret
        p->state = RUNNABLE;
    8000232a:	478d                	li	a5,3
    8000232c:	cc9c                	sw	a5,24(s1)
    8000232e:	b7cd                	j	80002310 <kill+0x52>

0000000080002330 <setkilled>:

void setkilled(struct proc *p)
{
    80002330:	1101                	addi	sp,sp,-32
    80002332:	ec06                	sd	ra,24(sp)
    80002334:	e822                	sd	s0,16(sp)
    80002336:	e426                	sd	s1,8(sp)
    80002338:	1000                	addi	s0,sp,32
    8000233a:	84aa                	mv	s1,a0
  acquire(&p->lock);
    8000233c:	fffff097          	auipc	ra,0xfffff
    80002340:	89a080e7          	jalr	-1894(ra) # 80000bd6 <acquire>
  p->killed = 1;
    80002344:	4785                	li	a5,1
    80002346:	d49c                	sw	a5,40(s1)
  release(&p->lock);
    80002348:	8526                	mv	a0,s1
    8000234a:	fffff097          	auipc	ra,0xfffff
    8000234e:	940080e7          	jalr	-1728(ra) # 80000c8a <release>
}
    80002352:	60e2                	ld	ra,24(sp)
    80002354:	6442                	ld	s0,16(sp)
    80002356:	64a2                	ld	s1,8(sp)
    80002358:	6105                	addi	sp,sp,32
    8000235a:	8082                	ret

000000008000235c <killed>:

int killed(struct proc *p)
{
    8000235c:	1101                	addi	sp,sp,-32
    8000235e:	ec06                	sd	ra,24(sp)
    80002360:	e822                	sd	s0,16(sp)
    80002362:	e426                	sd	s1,8(sp)
    80002364:	e04a                	sd	s2,0(sp)
    80002366:	1000                	addi	s0,sp,32
    80002368:	84aa                	mv	s1,a0
  int k;

  acquire(&p->lock);
    8000236a:	fffff097          	auipc	ra,0xfffff
    8000236e:	86c080e7          	jalr	-1940(ra) # 80000bd6 <acquire>
  k = p->killed;
    80002372:	0284a903          	lw	s2,40(s1)
  release(&p->lock);
    80002376:	8526                	mv	a0,s1
    80002378:	fffff097          	auipc	ra,0xfffff
    8000237c:	912080e7          	jalr	-1774(ra) # 80000c8a <release>
  return k;
}
    80002380:	854a                	mv	a0,s2
    80002382:	60e2                	ld	ra,24(sp)
    80002384:	6442                	ld	s0,16(sp)
    80002386:	64a2                	ld	s1,8(sp)
    80002388:	6902                	ld	s2,0(sp)
    8000238a:	6105                	addi	sp,sp,32
    8000238c:	8082                	ret

000000008000238e <wait>:
{
    8000238e:	715d                	addi	sp,sp,-80
    80002390:	e486                	sd	ra,72(sp)
    80002392:	e0a2                	sd	s0,64(sp)
    80002394:	fc26                	sd	s1,56(sp)
    80002396:	f84a                	sd	s2,48(sp)
    80002398:	f44e                	sd	s3,40(sp)
    8000239a:	f052                	sd	s4,32(sp)
    8000239c:	ec56                	sd	s5,24(sp)
    8000239e:	e85a                	sd	s6,16(sp)
    800023a0:	e45e                	sd	s7,8(sp)
    800023a2:	e062                	sd	s8,0(sp)
    800023a4:	0880                	addi	s0,sp,80
    800023a6:	8b2a                	mv	s6,a0
  struct proc *p = myproc();
    800023a8:	fffff097          	auipc	ra,0xfffff
    800023ac:	604080e7          	jalr	1540(ra) # 800019ac <myproc>
    800023b0:	892a                	mv	s2,a0
  acquire(&wait_lock);
    800023b2:	0000e517          	auipc	a0,0xe
    800023b6:	7d650513          	addi	a0,a0,2006 # 80010b88 <wait_lock>
    800023ba:	fffff097          	auipc	ra,0xfffff
    800023be:	81c080e7          	jalr	-2020(ra) # 80000bd6 <acquire>
    havekids = 0;
    800023c2:	4b81                	li	s7,0
        if (pp->state == ZOMBIE)
    800023c4:	4a15                	li	s4,5
        havekids = 1;
    800023c6:	4a85                	li	s5,1
    for (pp = proc; pp < &proc[NPROC]; pp++)
    800023c8:	00015997          	auipc	s3,0x15
    800023cc:	5d898993          	addi	s3,s3,1496 # 800179a0 <mlfq>
    sleep(p, &wait_lock); // DOC: wait-sleep
    800023d0:	0000ec17          	auipc	s8,0xe
    800023d4:	7b8c0c13          	addi	s8,s8,1976 # 80010b88 <wait_lock>
    havekids = 0;
    800023d8:	875e                	mv	a4,s7
    for (pp = proc; pp < &proc[NPROC]; pp++)
    800023da:	0000f497          	auipc	s1,0xf
    800023de:	bc648493          	addi	s1,s1,-1082 # 80010fa0 <proc>
    800023e2:	a0bd                	j	80002450 <wait+0xc2>
          pid = pp->pid;
    800023e4:	0304a983          	lw	s3,48(s1)
          if (addr != 0 && copyout(p->pagetable, addr, (char *)&pp->xstate,
    800023e8:	000b0e63          	beqz	s6,80002404 <wait+0x76>
    800023ec:	4691                	li	a3,4
    800023ee:	02c48613          	addi	a2,s1,44
    800023f2:	85da                	mv	a1,s6
    800023f4:	05093503          	ld	a0,80(s2)
    800023f8:	fffff097          	auipc	ra,0xfffff
    800023fc:	274080e7          	jalr	628(ra) # 8000166c <copyout>
    80002400:	02054563          	bltz	a0,8000242a <wait+0x9c>
          freeproc(pp);
    80002404:	8526                	mv	a0,s1
    80002406:	fffff097          	auipc	ra,0xfffff
    8000240a:	758080e7          	jalr	1880(ra) # 80001b5e <freeproc>
          release(&pp->lock);
    8000240e:	8526                	mv	a0,s1
    80002410:	fffff097          	auipc	ra,0xfffff
    80002414:	87a080e7          	jalr	-1926(ra) # 80000c8a <release>
          release(&wait_lock);
    80002418:	0000e517          	auipc	a0,0xe
    8000241c:	77050513          	addi	a0,a0,1904 # 80010b88 <wait_lock>
    80002420:	fffff097          	auipc	ra,0xfffff
    80002424:	86a080e7          	jalr	-1942(ra) # 80000c8a <release>
          return pid;
    80002428:	a0b5                	j	80002494 <wait+0x106>
            release(&pp->lock);
    8000242a:	8526                	mv	a0,s1
    8000242c:	fffff097          	auipc	ra,0xfffff
    80002430:	85e080e7          	jalr	-1954(ra) # 80000c8a <release>
            release(&wait_lock);
    80002434:	0000e517          	auipc	a0,0xe
    80002438:	75450513          	addi	a0,a0,1876 # 80010b88 <wait_lock>
    8000243c:	fffff097          	auipc	ra,0xfffff
    80002440:	84e080e7          	jalr	-1970(ra) # 80000c8a <release>
            return -1;
    80002444:	59fd                	li	s3,-1
    80002446:	a0b9                	j	80002494 <wait+0x106>
    for (pp = proc; pp < &proc[NPROC]; pp++)
    80002448:	1a848493          	addi	s1,s1,424
    8000244c:	03348463          	beq	s1,s3,80002474 <wait+0xe6>
      if (pp->parent == p)
    80002450:	7c9c                	ld	a5,56(s1)
    80002452:	ff279be3          	bne	a5,s2,80002448 <wait+0xba>
        acquire(&pp->lock);
    80002456:	8526                	mv	a0,s1
    80002458:	ffffe097          	auipc	ra,0xffffe
    8000245c:	77e080e7          	jalr	1918(ra) # 80000bd6 <acquire>
        if (pp->state == ZOMBIE)
    80002460:	4c9c                	lw	a5,24(s1)
    80002462:	f94781e3          	beq	a5,s4,800023e4 <wait+0x56>
        release(&pp->lock);
    80002466:	8526                	mv	a0,s1
    80002468:	fffff097          	auipc	ra,0xfffff
    8000246c:	822080e7          	jalr	-2014(ra) # 80000c8a <release>
        havekids = 1;
    80002470:	8756                	mv	a4,s5
    80002472:	bfd9                	j	80002448 <wait+0xba>
    if (!havekids || killed(p))
    80002474:	c719                	beqz	a4,80002482 <wait+0xf4>
    80002476:	854a                	mv	a0,s2
    80002478:	00000097          	auipc	ra,0x0
    8000247c:	ee4080e7          	jalr	-284(ra) # 8000235c <killed>
    80002480:	c51d                	beqz	a0,800024ae <wait+0x120>
      release(&wait_lock);
    80002482:	0000e517          	auipc	a0,0xe
    80002486:	70650513          	addi	a0,a0,1798 # 80010b88 <wait_lock>
    8000248a:	fffff097          	auipc	ra,0xfffff
    8000248e:	800080e7          	jalr	-2048(ra) # 80000c8a <release>
      return -1;
    80002492:	59fd                	li	s3,-1
}
    80002494:	854e                	mv	a0,s3
    80002496:	60a6                	ld	ra,72(sp)
    80002498:	6406                	ld	s0,64(sp)
    8000249a:	74e2                	ld	s1,56(sp)
    8000249c:	7942                	ld	s2,48(sp)
    8000249e:	79a2                	ld	s3,40(sp)
    800024a0:	7a02                	ld	s4,32(sp)
    800024a2:	6ae2                	ld	s5,24(sp)
    800024a4:	6b42                	ld	s6,16(sp)
    800024a6:	6ba2                	ld	s7,8(sp)
    800024a8:	6c02                	ld	s8,0(sp)
    800024aa:	6161                	addi	sp,sp,80
    800024ac:	8082                	ret
    sleep(p, &wait_lock); // DOC: wait-sleep
    800024ae:	85e2                	mv	a1,s8
    800024b0:	854a                	mv	a0,s2
    800024b2:	00000097          	auipc	ra,0x0
    800024b6:	bf6080e7          	jalr	-1034(ra) # 800020a8 <sleep>
    havekids = 0;
    800024ba:	bf39                	j	800023d8 <wait+0x4a>

00000000800024bc <either_copyout>:

// Copy to either a user address, or kernel address,
// depending on usr_dst.
// Returns 0 on success, -1 on error.
int either_copyout(int user_dst, uint64 dst, void *src, uint64 len)
{
    800024bc:	7179                	addi	sp,sp,-48
    800024be:	f406                	sd	ra,40(sp)
    800024c0:	f022                	sd	s0,32(sp)
    800024c2:	ec26                	sd	s1,24(sp)
    800024c4:	e84a                	sd	s2,16(sp)
    800024c6:	e44e                	sd	s3,8(sp)
    800024c8:	e052                	sd	s4,0(sp)
    800024ca:	1800                	addi	s0,sp,48
    800024cc:	84aa                	mv	s1,a0
    800024ce:	892e                	mv	s2,a1
    800024d0:	89b2                	mv	s3,a2
    800024d2:	8a36                	mv	s4,a3
  struct proc *p = myproc();
    800024d4:	fffff097          	auipc	ra,0xfffff
    800024d8:	4d8080e7          	jalr	1240(ra) # 800019ac <myproc>
  if (user_dst)
    800024dc:	c08d                	beqz	s1,800024fe <either_copyout+0x42>
  {
    return copyout(p->pagetable, dst, src, len);
    800024de:	86d2                	mv	a3,s4
    800024e0:	864e                	mv	a2,s3
    800024e2:	85ca                	mv	a1,s2
    800024e4:	6928                	ld	a0,80(a0)
    800024e6:	fffff097          	auipc	ra,0xfffff
    800024ea:	186080e7          	jalr	390(ra) # 8000166c <copyout>
  else
  {
    memmove((char *)dst, src, len);
    return 0;
  }
}
    800024ee:	70a2                	ld	ra,40(sp)
    800024f0:	7402                	ld	s0,32(sp)
    800024f2:	64e2                	ld	s1,24(sp)
    800024f4:	6942                	ld	s2,16(sp)
    800024f6:	69a2                	ld	s3,8(sp)
    800024f8:	6a02                	ld	s4,0(sp)
    800024fa:	6145                	addi	sp,sp,48
    800024fc:	8082                	ret
    memmove((char *)dst, src, len);
    800024fe:	000a061b          	sext.w	a2,s4
    80002502:	85ce                	mv	a1,s3
    80002504:	854a                	mv	a0,s2
    80002506:	fffff097          	auipc	ra,0xfffff
    8000250a:	828080e7          	jalr	-2008(ra) # 80000d2e <memmove>
    return 0;
    8000250e:	8526                	mv	a0,s1
    80002510:	bff9                	j	800024ee <either_copyout+0x32>

0000000080002512 <either_copyin>:

// Copy from either a user address, or kernel address,
// depending on usr_src.
// Returns 0 on success, -1 on error.
int either_copyin(void *dst, int user_src, uint64 src, uint64 len)
{
    80002512:	7179                	addi	sp,sp,-48
    80002514:	f406                	sd	ra,40(sp)
    80002516:	f022                	sd	s0,32(sp)
    80002518:	ec26                	sd	s1,24(sp)
    8000251a:	e84a                	sd	s2,16(sp)
    8000251c:	e44e                	sd	s3,8(sp)
    8000251e:	e052                	sd	s4,0(sp)
    80002520:	1800                	addi	s0,sp,48
    80002522:	892a                	mv	s2,a0
    80002524:	84ae                	mv	s1,a1
    80002526:	89b2                	mv	s3,a2
    80002528:	8a36                	mv	s4,a3
  struct proc *p = myproc();
    8000252a:	fffff097          	auipc	ra,0xfffff
    8000252e:	482080e7          	jalr	1154(ra) # 800019ac <myproc>
  if (user_src)
    80002532:	c08d                	beqz	s1,80002554 <either_copyin+0x42>
  {
    return copyin(p->pagetable, dst, src, len);
    80002534:	86d2                	mv	a3,s4
    80002536:	864e                	mv	a2,s3
    80002538:	85ca                	mv	a1,s2
    8000253a:	6928                	ld	a0,80(a0)
    8000253c:	fffff097          	auipc	ra,0xfffff
    80002540:	1bc080e7          	jalr	444(ra) # 800016f8 <copyin>
  else
  {
    memmove(dst, (char *)src, len);
    return 0;
  }
}
    80002544:	70a2                	ld	ra,40(sp)
    80002546:	7402                	ld	s0,32(sp)
    80002548:	64e2                	ld	s1,24(sp)
    8000254a:	6942                	ld	s2,16(sp)
    8000254c:	69a2                	ld	s3,8(sp)
    8000254e:	6a02                	ld	s4,0(sp)
    80002550:	6145                	addi	sp,sp,48
    80002552:	8082                	ret
    memmove(dst, (char *)src, len);
    80002554:	000a061b          	sext.w	a2,s4
    80002558:	85ce                	mv	a1,s3
    8000255a:	854a                	mv	a0,s2
    8000255c:	ffffe097          	auipc	ra,0xffffe
    80002560:	7d2080e7          	jalr	2002(ra) # 80000d2e <memmove>
    return 0;
    80002564:	8526                	mv	a0,s1
    80002566:	bff9                	j	80002544 <either_copyin+0x32>

0000000080002568 <procdump>:

// Print a process listing to console.  For debugging.
// Runs when user types ^P on console.
// No lock to avoid wedging a stuck machine further.
void procdump(void)
{
    80002568:	715d                	addi	sp,sp,-80
    8000256a:	e486                	sd	ra,72(sp)
    8000256c:	e0a2                	sd	s0,64(sp)
    8000256e:	fc26                	sd	s1,56(sp)
    80002570:	f84a                	sd	s2,48(sp)
    80002572:	f44e                	sd	s3,40(sp)
    80002574:	f052                	sd	s4,32(sp)
    80002576:	ec56                	sd	s5,24(sp)
    80002578:	e85a                	sd	s6,16(sp)
    8000257a:	e45e                	sd	s7,8(sp)
    8000257c:	0880                	addi	s0,sp,80
      [RUNNING] "run   ",
      [ZOMBIE] "zombie"};
  struct proc *p;
  char *state;

  printf("\n");
    8000257e:	00006517          	auipc	a0,0x6
    80002582:	b4a50513          	addi	a0,a0,-1206 # 800080c8 <digits+0x88>
    80002586:	ffffe097          	auipc	ra,0xffffe
    8000258a:	004080e7          	jalr	4(ra) # 8000058a <printf>
  for (p = proc; p < &proc[NPROC]; p++)
    8000258e:	0000f497          	auipc	s1,0xf
    80002592:	b6a48493          	addi	s1,s1,-1174 # 800110f8 <proc+0x158>
    80002596:	00015917          	auipc	s2,0x15
    8000259a:	56290913          	addi	s2,s2,1378 # 80017af8 <mlfq+0x158>
  {
    if (p->state == UNUSED)
      continue;
    if (p->state >= 0 && p->state < NELEM(states) && states[p->state])
    8000259e:	4b15                	li	s6,5
      state = states[p->state];
    else
      state = "???";
    800025a0:	00006997          	auipc	s3,0x6
    800025a4:	ce098993          	addi	s3,s3,-800 # 80008280 <digits+0x240>
    printf("%d %s %s", p->pid, state, p->name);
    800025a8:	00006a97          	auipc	s5,0x6
    800025ac:	ce0a8a93          	addi	s5,s5,-800 # 80008288 <digits+0x248>
    printf("\n");
    800025b0:	00006a17          	auipc	s4,0x6
    800025b4:	b18a0a13          	addi	s4,s4,-1256 # 800080c8 <digits+0x88>
    if (p->state >= 0 && p->state < NELEM(states) && states[p->state])
    800025b8:	00006b97          	auipc	s7,0x6
    800025bc:	d10b8b93          	addi	s7,s7,-752 # 800082c8 <states.0>
    800025c0:	a00d                	j	800025e2 <procdump+0x7a>
    printf("%d %s %s", p->pid, state, p->name);
    800025c2:	ed86a583          	lw	a1,-296(a3)
    800025c6:	8556                	mv	a0,s5
    800025c8:	ffffe097          	auipc	ra,0xffffe
    800025cc:	fc2080e7          	jalr	-62(ra) # 8000058a <printf>
    printf("\n");
    800025d0:	8552                	mv	a0,s4
    800025d2:	ffffe097          	auipc	ra,0xffffe
    800025d6:	fb8080e7          	jalr	-72(ra) # 8000058a <printf>
  for (p = proc; p < &proc[NPROC]; p++)
    800025da:	1a848493          	addi	s1,s1,424
    800025de:	03248263          	beq	s1,s2,80002602 <procdump+0x9a>
    if (p->state == UNUSED)
    800025e2:	86a6                	mv	a3,s1
    800025e4:	ec04a783          	lw	a5,-320(s1)
    800025e8:	dbed                	beqz	a5,800025da <procdump+0x72>
      state = "???";
    800025ea:	864e                	mv	a2,s3
    if (p->state >= 0 && p->state < NELEM(states) && states[p->state])
    800025ec:	fcfb6be3          	bltu	s6,a5,800025c2 <procdump+0x5a>
    800025f0:	02079713          	slli	a4,a5,0x20
    800025f4:	01d75793          	srli	a5,a4,0x1d
    800025f8:	97de                	add	a5,a5,s7
    800025fa:	6390                	ld	a2,0(a5)
    800025fc:	f279                	bnez	a2,800025c2 <procdump+0x5a>
      state = "???";
    800025fe:	864e                	mv	a2,s3
    80002600:	b7c9                	j	800025c2 <procdump+0x5a>
  }
}
    80002602:	60a6                	ld	ra,72(sp)
    80002604:	6406                	ld	s0,64(sp)
    80002606:	74e2                	ld	s1,56(sp)
    80002608:	7942                	ld	s2,48(sp)
    8000260a:	79a2                	ld	s3,40(sp)
    8000260c:	7a02                	ld	s4,32(sp)
    8000260e:	6ae2                	ld	s5,24(sp)
    80002610:	6b42                	ld	s6,16(sp)
    80002612:	6ba2                	ld	s7,8(sp)
    80002614:	6161                	addi	sp,sp,80
    80002616:	8082                	ret

0000000080002618 <waitx>:

// waitx
int waitx(uint64 addr, uint *wtime, uint *rtime)
{
    80002618:	711d                	addi	sp,sp,-96
    8000261a:	ec86                	sd	ra,88(sp)
    8000261c:	e8a2                	sd	s0,80(sp)
    8000261e:	e4a6                	sd	s1,72(sp)
    80002620:	e0ca                	sd	s2,64(sp)
    80002622:	fc4e                	sd	s3,56(sp)
    80002624:	f852                	sd	s4,48(sp)
    80002626:	f456                	sd	s5,40(sp)
    80002628:	f05a                	sd	s6,32(sp)
    8000262a:	ec5e                	sd	s7,24(sp)
    8000262c:	e862                	sd	s8,16(sp)
    8000262e:	e466                	sd	s9,8(sp)
    80002630:	e06a                	sd	s10,0(sp)
    80002632:	1080                	addi	s0,sp,96
    80002634:	8b2a                	mv	s6,a0
    80002636:	8bae                	mv	s7,a1
    80002638:	8c32                	mv	s8,a2
  struct proc *np;
  int havekids, pid;
  struct proc *p = myproc();
    8000263a:	fffff097          	auipc	ra,0xfffff
    8000263e:	372080e7          	jalr	882(ra) # 800019ac <myproc>
    80002642:	892a                	mv	s2,a0

  acquire(&wait_lock);
    80002644:	0000e517          	auipc	a0,0xe
    80002648:	54450513          	addi	a0,a0,1348 # 80010b88 <wait_lock>
    8000264c:	ffffe097          	auipc	ra,0xffffe
    80002650:	58a080e7          	jalr	1418(ra) # 80000bd6 <acquire>

  for (;;)
  {
    // Scan through table looking for exited children.
    havekids = 0;
    80002654:	4c81                	li	s9,0
      {
        // make sure the child isn't still in exit() or swtch().
        acquire(&np->lock);

        havekids = 1;
        if (np->state == ZOMBIE)
    80002656:	4a15                	li	s4,5
        havekids = 1;
    80002658:	4a85                	li	s5,1
    for (np = proc; np < &proc[NPROC]; np++)
    8000265a:	00015997          	auipc	s3,0x15
    8000265e:	34698993          	addi	s3,s3,838 # 800179a0 <mlfq>
      release(&wait_lock);
      return -1;
    }

    // Wait for a child to exit.
    sleep(p, &wait_lock); // DOC: wait-sleep
    80002662:	0000ed17          	auipc	s10,0xe
    80002666:	526d0d13          	addi	s10,s10,1318 # 80010b88 <wait_lock>
    havekids = 0;
    8000266a:	8766                	mv	a4,s9
    for (np = proc; np < &proc[NPROC]; np++)
    8000266c:	0000f497          	auipc	s1,0xf
    80002670:	93448493          	addi	s1,s1,-1740 # 80010fa0 <proc>
    80002674:	a059                	j	800026fa <waitx+0xe2>
          pid = np->pid;
    80002676:	0304a983          	lw	s3,48(s1)
          *rtime = np->rtime;
    8000267a:	1684a783          	lw	a5,360(s1)
    8000267e:	00fc2023          	sw	a5,0(s8)
          *wtime = np->etime - np->ctime - np->rtime;
    80002682:	16c4a703          	lw	a4,364(s1)
    80002686:	9f3d                	addw	a4,a4,a5
    80002688:	1704a783          	lw	a5,368(s1)
    8000268c:	9f99                	subw	a5,a5,a4
    8000268e:	00fba023          	sw	a5,0(s7)
          if (addr != 0 && copyout(p->pagetable, addr, (char *)&np->xstate,
    80002692:	000b0e63          	beqz	s6,800026ae <waitx+0x96>
    80002696:	4691                	li	a3,4
    80002698:	02c48613          	addi	a2,s1,44
    8000269c:	85da                	mv	a1,s6
    8000269e:	05093503          	ld	a0,80(s2)
    800026a2:	fffff097          	auipc	ra,0xfffff
    800026a6:	fca080e7          	jalr	-54(ra) # 8000166c <copyout>
    800026aa:	02054563          	bltz	a0,800026d4 <waitx+0xbc>
          freeproc(np);
    800026ae:	8526                	mv	a0,s1
    800026b0:	fffff097          	auipc	ra,0xfffff
    800026b4:	4ae080e7          	jalr	1198(ra) # 80001b5e <freeproc>
          release(&np->lock);
    800026b8:	8526                	mv	a0,s1
    800026ba:	ffffe097          	auipc	ra,0xffffe
    800026be:	5d0080e7          	jalr	1488(ra) # 80000c8a <release>
          release(&wait_lock);
    800026c2:	0000e517          	auipc	a0,0xe
    800026c6:	4c650513          	addi	a0,a0,1222 # 80010b88 <wait_lock>
    800026ca:	ffffe097          	auipc	ra,0xffffe
    800026ce:	5c0080e7          	jalr	1472(ra) # 80000c8a <release>
          return pid;
    800026d2:	a09d                	j	80002738 <waitx+0x120>
            release(&np->lock);
    800026d4:	8526                	mv	a0,s1
    800026d6:	ffffe097          	auipc	ra,0xffffe
    800026da:	5b4080e7          	jalr	1460(ra) # 80000c8a <release>
            release(&wait_lock);
    800026de:	0000e517          	auipc	a0,0xe
    800026e2:	4aa50513          	addi	a0,a0,1194 # 80010b88 <wait_lock>
    800026e6:	ffffe097          	auipc	ra,0xffffe
    800026ea:	5a4080e7          	jalr	1444(ra) # 80000c8a <release>
            return -1;
    800026ee:	59fd                	li	s3,-1
    800026f0:	a0a1                	j	80002738 <waitx+0x120>
    for (np = proc; np < &proc[NPROC]; np++)
    800026f2:	1a848493          	addi	s1,s1,424
    800026f6:	03348463          	beq	s1,s3,8000271e <waitx+0x106>
      if (np->parent == p)
    800026fa:	7c9c                	ld	a5,56(s1)
    800026fc:	ff279be3          	bne	a5,s2,800026f2 <waitx+0xda>
        acquire(&np->lock);
    80002700:	8526                	mv	a0,s1
    80002702:	ffffe097          	auipc	ra,0xffffe
    80002706:	4d4080e7          	jalr	1236(ra) # 80000bd6 <acquire>
        if (np->state == ZOMBIE)
    8000270a:	4c9c                	lw	a5,24(s1)
    8000270c:	f74785e3          	beq	a5,s4,80002676 <waitx+0x5e>
        release(&np->lock);
    80002710:	8526                	mv	a0,s1
    80002712:	ffffe097          	auipc	ra,0xffffe
    80002716:	578080e7          	jalr	1400(ra) # 80000c8a <release>
        havekids = 1;
    8000271a:	8756                	mv	a4,s5
    8000271c:	bfd9                	j	800026f2 <waitx+0xda>
    if (!havekids || p->killed)
    8000271e:	c701                	beqz	a4,80002726 <waitx+0x10e>
    80002720:	02892783          	lw	a5,40(s2)
    80002724:	cb8d                	beqz	a5,80002756 <waitx+0x13e>
      release(&wait_lock);
    80002726:	0000e517          	auipc	a0,0xe
    8000272a:	46250513          	addi	a0,a0,1122 # 80010b88 <wait_lock>
    8000272e:	ffffe097          	auipc	ra,0xffffe
    80002732:	55c080e7          	jalr	1372(ra) # 80000c8a <release>
      return -1;
    80002736:	59fd                	li	s3,-1
  }
}
    80002738:	854e                	mv	a0,s3
    8000273a:	60e6                	ld	ra,88(sp)
    8000273c:	6446                	ld	s0,80(sp)
    8000273e:	64a6                	ld	s1,72(sp)
    80002740:	6906                	ld	s2,64(sp)
    80002742:	79e2                	ld	s3,56(sp)
    80002744:	7a42                	ld	s4,48(sp)
    80002746:	7aa2                	ld	s5,40(sp)
    80002748:	7b02                	ld	s6,32(sp)
    8000274a:	6be2                	ld	s7,24(sp)
    8000274c:	6c42                	ld	s8,16(sp)
    8000274e:	6ca2                	ld	s9,8(sp)
    80002750:	6d02                	ld	s10,0(sp)
    80002752:	6125                	addi	sp,sp,96
    80002754:	8082                	ret
    sleep(p, &wait_lock); // DOC: wait-sleep
    80002756:	85ea                	mv	a1,s10
    80002758:	854a                	mv	a0,s2
    8000275a:	00000097          	auipc	ra,0x0
    8000275e:	94e080e7          	jalr	-1714(ra) # 800020a8 <sleep>
    havekids = 0;
    80002762:	b721                	j	8000266a <waitx+0x52>

0000000080002764 <update_time>:

void update_time()
{
    80002764:	7179                	addi	sp,sp,-48
    80002766:	f406                	sd	ra,40(sp)
    80002768:	f022                	sd	s0,32(sp)
    8000276a:	ec26                	sd	s1,24(sp)
    8000276c:	e84a                	sd	s2,16(sp)
    8000276e:	e44e                	sd	s3,8(sp)
    80002770:	1800                	addi	s0,sp,48
  struct proc *p;
  for (p = proc; p < &proc[NPROC]; p++)
    80002772:	0000f497          	auipc	s1,0xf
    80002776:	82e48493          	addi	s1,s1,-2002 # 80010fa0 <proc>
  {
    acquire(&p->lock);
    if (p->state == RUNNING)
    8000277a:	4991                	li	s3,4
  for (p = proc; p < &proc[NPROC]; p++)
    8000277c:	00015917          	auipc	s2,0x15
    80002780:	22490913          	addi	s2,s2,548 # 800179a0 <mlfq>
    80002784:	a811                	j	80002798 <update_time+0x34>
    {
      p->rtime++;
    }
    release(&p->lock);
    80002786:	8526                	mv	a0,s1
    80002788:	ffffe097          	auipc	ra,0xffffe
    8000278c:	502080e7          	jalr	1282(ra) # 80000c8a <release>
  for (p = proc; p < &proc[NPROC]; p++)
    80002790:	1a848493          	addi	s1,s1,424
    80002794:	03248063          	beq	s1,s2,800027b4 <update_time+0x50>
    acquire(&p->lock);
    80002798:	8526                	mv	a0,s1
    8000279a:	ffffe097          	auipc	ra,0xffffe
    8000279e:	43c080e7          	jalr	1084(ra) # 80000bd6 <acquire>
    if (p->state == RUNNING)
    800027a2:	4c9c                	lw	a5,24(s1)
    800027a4:	ff3791e3          	bne	a5,s3,80002786 <update_time+0x22>
      p->rtime++;
    800027a8:	1684a783          	lw	a5,360(s1)
    800027ac:	2785                	addiw	a5,a5,1
    800027ae:	16f4a423          	sw	a5,360(s1)
    800027b2:	bfd1                	j	80002786 <update_time+0x22>
  }
    800027b4:	70a2                	ld	ra,40(sp)
    800027b6:	7402                	ld	s0,32(sp)
    800027b8:	64e2                	ld	s1,24(sp)
    800027ba:	6942                	ld	s2,16(sp)
    800027bc:	69a2                	ld	s3,8(sp)
    800027be:	6145                	addi	sp,sp,48
    800027c0:	8082                	ret

00000000800027c2 <swtch>:
    800027c2:	00153023          	sd	ra,0(a0)
    800027c6:	00253423          	sd	sp,8(a0)
    800027ca:	e900                	sd	s0,16(a0)
    800027cc:	ed04                	sd	s1,24(a0)
    800027ce:	03253023          	sd	s2,32(a0)
    800027d2:	03353423          	sd	s3,40(a0)
    800027d6:	03453823          	sd	s4,48(a0)
    800027da:	03553c23          	sd	s5,56(a0)
    800027de:	05653023          	sd	s6,64(a0)
    800027e2:	05753423          	sd	s7,72(a0)
    800027e6:	05853823          	sd	s8,80(a0)
    800027ea:	05953c23          	sd	s9,88(a0)
    800027ee:	07a53023          	sd	s10,96(a0)
    800027f2:	07b53423          	sd	s11,104(a0)
    800027f6:	0005b083          	ld	ra,0(a1)
    800027fa:	0085b103          	ld	sp,8(a1)
    800027fe:	6980                	ld	s0,16(a1)
    80002800:	6d84                	ld	s1,24(a1)
    80002802:	0205b903          	ld	s2,32(a1)
    80002806:	0285b983          	ld	s3,40(a1)
    8000280a:	0305ba03          	ld	s4,48(a1)
    8000280e:	0385ba83          	ld	s5,56(a1)
    80002812:	0405bb03          	ld	s6,64(a1)
    80002816:	0485bb83          	ld	s7,72(a1)
    8000281a:	0505bc03          	ld	s8,80(a1)
    8000281e:	0585bc83          	ld	s9,88(a1)
    80002822:	0605bd03          	ld	s10,96(a1)
    80002826:	0685bd83          	ld	s11,104(a1)
    8000282a:	8082                	ret

000000008000282c <trapinit>:
void kernelvec();

extern int devintr();

void trapinit(void)
{
    8000282c:	1141                	addi	sp,sp,-16
    8000282e:	e406                	sd	ra,8(sp)
    80002830:	e022                	sd	s0,0(sp)
    80002832:	0800                	addi	s0,sp,16
  initlock(&tickslock, "time");
    80002834:	00006597          	auipc	a1,0x6
    80002838:	ac458593          	addi	a1,a1,-1340 # 800082f8 <states.0+0x30>
    8000283c:	00016517          	auipc	a0,0x16
    80002840:	b8c50513          	addi	a0,a0,-1140 # 800183c8 <tickslock>
    80002844:	ffffe097          	auipc	ra,0xffffe
    80002848:	302080e7          	jalr	770(ra) # 80000b46 <initlock>
}
    8000284c:	60a2                	ld	ra,8(sp)
    8000284e:	6402                	ld	s0,0(sp)
    80002850:	0141                	addi	sp,sp,16
    80002852:	8082                	ret

0000000080002854 <trapinithart>:

// set up to take exceptions and traps while in the kernel.
void trapinithart(void)
{
    80002854:	1141                	addi	sp,sp,-16
    80002856:	e422                	sd	s0,8(sp)
    80002858:	0800                	addi	s0,sp,16
  asm volatile("csrw stvec, %0"
    8000285a:	00003797          	auipc	a5,0x3
    8000285e:	65678793          	addi	a5,a5,1622 # 80005eb0 <kernelvec>
    80002862:	10579073          	csrw	stvec,a5
  w_stvec((uint64)kernelvec);
}
    80002866:	6422                	ld	s0,8(sp)
    80002868:	0141                	addi	sp,sp,16
    8000286a:	8082                	ret

000000008000286c <usertrapret>:

//
// return to user space
//
void usertrapret(void)
{
    8000286c:	1141                	addi	sp,sp,-16
    8000286e:	e406                	sd	ra,8(sp)
    80002870:	e022                	sd	s0,0(sp)
    80002872:	0800                	addi	s0,sp,16
  struct proc *p = myproc();
    80002874:	fffff097          	auipc	ra,0xfffff
    80002878:	138080e7          	jalr	312(ra) # 800019ac <myproc>
  asm volatile("csrr %0, sstatus"
    8000287c:	100027f3          	csrr	a5,sstatus
  w_sstatus(r_sstatus() & ~SSTATUS_SIE);
    80002880:	9bf5                	andi	a5,a5,-3
  asm volatile("csrw sstatus, %0"
    80002882:	10079073          	csrw	sstatus,a5
  // kerneltrap() to usertrap(), so turn off interrupts until
  // we're back in user space, where usertrap() is correct.
  intr_off();

  // send syscalls, interrupts, and exceptions to uservec in trampoline.S
  uint64 trampoline_uservec = TRAMPOLINE + (uservec - trampoline);
    80002886:	00004697          	auipc	a3,0x4
    8000288a:	77a68693          	addi	a3,a3,1914 # 80007000 <_trampoline>
    8000288e:	00004717          	auipc	a4,0x4
    80002892:	77270713          	addi	a4,a4,1906 # 80007000 <_trampoline>
    80002896:	8f15                	sub	a4,a4,a3
    80002898:	040007b7          	lui	a5,0x4000
    8000289c:	17fd                	addi	a5,a5,-1 # 3ffffff <_entry-0x7c000001>
    8000289e:	07b2                	slli	a5,a5,0xc
    800028a0:	973e                	add	a4,a4,a5
  asm volatile("csrw stvec, %0"
    800028a2:	10571073          	csrw	stvec,a4
  w_stvec(trampoline_uservec);

  // set up trapframe values that uservec will need when
  // the process next traps into the kernel.
  p->trapframe->kernel_satp = r_satp();         // kernel page table
    800028a6:	6d38                	ld	a4,88(a0)
  asm volatile("csrr %0, satp"
    800028a8:	18002673          	csrr	a2,satp
    800028ac:	e310                	sd	a2,0(a4)
  p->trapframe->kernel_sp = p->kstack + PGSIZE; // process's kernel stack
    800028ae:	6d30                	ld	a2,88(a0)
    800028b0:	6138                	ld	a4,64(a0)
    800028b2:	6585                	lui	a1,0x1
    800028b4:	972e                	add	a4,a4,a1
    800028b6:	e618                	sd	a4,8(a2)
  p->trapframe->kernel_trap = (uint64)usertrap;
    800028b8:	6d38                	ld	a4,88(a0)
    800028ba:	00000617          	auipc	a2,0x0
    800028be:	13e60613          	addi	a2,a2,318 # 800029f8 <usertrap>
    800028c2:	eb10                	sd	a2,16(a4)
  p->trapframe->kernel_hartid = r_tp(); // hartid for cpuid()
    800028c4:	6d38                	ld	a4,88(a0)
  asm volatile("mv %0, tp"
    800028c6:	8612                	mv	a2,tp
    800028c8:	f310                	sd	a2,32(a4)
  asm volatile("csrr %0, sstatus"
    800028ca:	10002773          	csrr	a4,sstatus
  // set up the registers that trampoline.S's sret will use
  // to get to user space.

  // set S Previous Privilege mode to User.
  unsigned long x = r_sstatus();
  x &= ~SSTATUS_SPP; // clear SPP to 0 for user mode
    800028ce:	eff77713          	andi	a4,a4,-257
  x |= SSTATUS_SPIE; // enable interrupts in user mode
    800028d2:	02076713          	ori	a4,a4,32
  asm volatile("csrw sstatus, %0"
    800028d6:	10071073          	csrw	sstatus,a4
  w_sstatus(x);

  // set S Exception Program Counter to the saved user pc.
  w_sepc(p->trapframe->epc);
    800028da:	6d38                	ld	a4,88(a0)
  asm volatile("csrw sepc, %0"
    800028dc:	6f18                	ld	a4,24(a4)
    800028de:	14171073          	csrw	sepc,a4

  // tell trampoline.S the user page table to switch to.
  uint64 satp = MAKE_SATP(p->pagetable);
    800028e2:	6928                	ld	a0,80(a0)
    800028e4:	8131                	srli	a0,a0,0xc

  // jump to userret in trampoline.S at the top of memory, which
  // switches to the user page table, restores user registers,
  // and switches to user mode with sret.
  uint64 trampoline_userret = TRAMPOLINE + (userret - trampoline);
    800028e6:	00004717          	auipc	a4,0x4
    800028ea:	7b670713          	addi	a4,a4,1974 # 8000709c <userret>
    800028ee:	8f15                	sub	a4,a4,a3
    800028f0:	97ba                	add	a5,a5,a4
  ((void (*)(uint64))trampoline_userret)(satp);
    800028f2:	577d                	li	a4,-1
    800028f4:	177e                	slli	a4,a4,0x3f
    800028f6:	8d59                	or	a0,a0,a4
    800028f8:	9782                	jalr	a5
}
    800028fa:	60a2                	ld	ra,8(sp)
    800028fc:	6402                	ld	s0,0(sp)
    800028fe:	0141                	addi	sp,sp,16
    80002900:	8082                	ret

0000000080002902 <clockintr>:
  w_sepc(sepc);
  w_sstatus(sstatus);
}

void clockintr()
{
    80002902:	1101                	addi	sp,sp,-32
    80002904:	ec06                	sd	ra,24(sp)
    80002906:	e822                	sd	s0,16(sp)
    80002908:	e426                	sd	s1,8(sp)
    8000290a:	e04a                	sd	s2,0(sp)
    8000290c:	1000                	addi	s0,sp,32
  acquire(&tickslock);
    8000290e:	00016917          	auipc	s2,0x16
    80002912:	aba90913          	addi	s2,s2,-1350 # 800183c8 <tickslock>
    80002916:	854a                	mv	a0,s2
    80002918:	ffffe097          	auipc	ra,0xffffe
    8000291c:	2be080e7          	jalr	702(ra) # 80000bd6 <acquire>
  ticks++;
    80002920:	00006497          	auipc	s1,0x6
    80002924:	fe048493          	addi	s1,s1,-32 # 80008900 <ticks>
    80002928:	409c                	lw	a5,0(s1)
    8000292a:	2785                	addiw	a5,a5,1
    8000292c:	c09c                	sw	a5,0(s1)
  update_time();
    8000292e:	00000097          	auipc	ra,0x0
    80002932:	e36080e7          	jalr	-458(ra) # 80002764 <update_time>
  // if (myproc() != 0)
  // {
  //   myproc()->change_queue--;
  // }
  wakeup(&ticks);
    80002936:	8526                	mv	a0,s1
    80002938:	fffff097          	auipc	ra,0xfffff
    8000293c:	7d4080e7          	jalr	2004(ra) # 8000210c <wakeup>
  release(&tickslock);
    80002940:	854a                	mv	a0,s2
    80002942:	ffffe097          	auipc	ra,0xffffe
    80002946:	348080e7          	jalr	840(ra) # 80000c8a <release>
}
    8000294a:	60e2                	ld	ra,24(sp)
    8000294c:	6442                	ld	s0,16(sp)
    8000294e:	64a2                	ld	s1,8(sp)
    80002950:	6902                	ld	s2,0(sp)
    80002952:	6105                	addi	sp,sp,32
    80002954:	8082                	ret

0000000080002956 <devintr>:
// and handle it.
// returns 2 if timer interrupt,
// 1 if other device,
// 0 if not recognized.
int devintr()
{
    80002956:	1101                	addi	sp,sp,-32
    80002958:	ec06                	sd	ra,24(sp)
    8000295a:	e822                	sd	s0,16(sp)
    8000295c:	e426                	sd	s1,8(sp)
    8000295e:	1000                	addi	s0,sp,32
  asm volatile("csrr %0, scause"
    80002960:	14202773          	csrr	a4,scause
  uint64 scause = r_scause();

  if ((scause & 0x8000000000000000L) &&
    80002964:	00074d63          	bltz	a4,8000297e <devintr+0x28>
    if (irq)
      plic_complete(irq);

    return 1;
  }
  else if (scause == 0x8000000000000001L)
    80002968:	57fd                	li	a5,-1
    8000296a:	17fe                	slli	a5,a5,0x3f
    8000296c:	0785                	addi	a5,a5,1

    return 2;
  }
  else
  {
    return 0;
    8000296e:	4501                	li	a0,0
  else if (scause == 0x8000000000000001L)
    80002970:	06f70363          	beq	a4,a5,800029d6 <devintr+0x80>
  }
}
    80002974:	60e2                	ld	ra,24(sp)
    80002976:	6442                	ld	s0,16(sp)
    80002978:	64a2                	ld	s1,8(sp)
    8000297a:	6105                	addi	sp,sp,32
    8000297c:	8082                	ret
      (scause & 0xff) == 9)
    8000297e:	0ff77793          	zext.b	a5,a4
  if ((scause & 0x8000000000000000L) &&
    80002982:	46a5                	li	a3,9
    80002984:	fed792e3          	bne	a5,a3,80002968 <devintr+0x12>
    int irq = plic_claim();
    80002988:	00003097          	auipc	ra,0x3
    8000298c:	630080e7          	jalr	1584(ra) # 80005fb8 <plic_claim>
    80002990:	84aa                	mv	s1,a0
    if (irq == UART0_IRQ)
    80002992:	47a9                	li	a5,10
    80002994:	02f50763          	beq	a0,a5,800029c2 <devintr+0x6c>
    else if (irq == VIRTIO0_IRQ)
    80002998:	4785                	li	a5,1
    8000299a:	02f50963          	beq	a0,a5,800029cc <devintr+0x76>
    return 1;
    8000299e:	4505                	li	a0,1
    else if (irq)
    800029a0:	d8f1                	beqz	s1,80002974 <devintr+0x1e>
      printf("unexpected interrupt irq=%d\n", irq);
    800029a2:	85a6                	mv	a1,s1
    800029a4:	00006517          	auipc	a0,0x6
    800029a8:	95c50513          	addi	a0,a0,-1700 # 80008300 <states.0+0x38>
    800029ac:	ffffe097          	auipc	ra,0xffffe
    800029b0:	bde080e7          	jalr	-1058(ra) # 8000058a <printf>
      plic_complete(irq);
    800029b4:	8526                	mv	a0,s1
    800029b6:	00003097          	auipc	ra,0x3
    800029ba:	626080e7          	jalr	1574(ra) # 80005fdc <plic_complete>
    return 1;
    800029be:	4505                	li	a0,1
    800029c0:	bf55                	j	80002974 <devintr+0x1e>
      uartintr();
    800029c2:	ffffe097          	auipc	ra,0xffffe
    800029c6:	fd6080e7          	jalr	-42(ra) # 80000998 <uartintr>
    800029ca:	b7ed                	j	800029b4 <devintr+0x5e>
      virtio_disk_intr();
    800029cc:	00004097          	auipc	ra,0x4
    800029d0:	bc0080e7          	jalr	-1088(ra) # 8000658c <virtio_disk_intr>
    800029d4:	b7c5                	j	800029b4 <devintr+0x5e>
    if (cpuid() == 0)
    800029d6:	fffff097          	auipc	ra,0xfffff
    800029da:	faa080e7          	jalr	-86(ra) # 80001980 <cpuid>
    800029de:	c901                	beqz	a0,800029ee <devintr+0x98>
  asm volatile("csrr %0, sip"
    800029e0:	144027f3          	csrr	a5,sip
    w_sip(r_sip() & ~2);
    800029e4:	9bf5                	andi	a5,a5,-3
  asm volatile("csrw sip, %0"
    800029e6:	14479073          	csrw	sip,a5
    return 2;
    800029ea:	4509                	li	a0,2
    800029ec:	b761                	j	80002974 <devintr+0x1e>
      clockintr();
    800029ee:	00000097          	auipc	ra,0x0
    800029f2:	f14080e7          	jalr	-236(ra) # 80002902 <clockintr>
    800029f6:	b7ed                	j	800029e0 <devintr+0x8a>

00000000800029f8 <usertrap>:
{
    800029f8:	1101                	addi	sp,sp,-32
    800029fa:	ec06                	sd	ra,24(sp)
    800029fc:	e822                	sd	s0,16(sp)
    800029fe:	e426                	sd	s1,8(sp)
    80002a00:	e04a                	sd	s2,0(sp)
    80002a02:	1000                	addi	s0,sp,32
  asm volatile("csrr %0, sstatus"
    80002a04:	100027f3          	csrr	a5,sstatus
  if ((r_sstatus() & SSTATUS_SPP) != 0)
    80002a08:	1007f793          	andi	a5,a5,256
    80002a0c:	e3b1                	bnez	a5,80002a50 <usertrap+0x58>
  asm volatile("csrw stvec, %0"
    80002a0e:	00003797          	auipc	a5,0x3
    80002a12:	4a278793          	addi	a5,a5,1186 # 80005eb0 <kernelvec>
    80002a16:	10579073          	csrw	stvec,a5
  struct proc *p = myproc();
    80002a1a:	fffff097          	auipc	ra,0xfffff
    80002a1e:	f92080e7          	jalr	-110(ra) # 800019ac <myproc>
    80002a22:	84aa                	mv	s1,a0
  p->trapframe->epc = r_sepc();
    80002a24:	6d3c                	ld	a5,88(a0)
  asm volatile("csrr %0, sepc"
    80002a26:	14102773          	csrr	a4,sepc
    80002a2a:	ef98                	sd	a4,24(a5)
  asm volatile("csrr %0, scause"
    80002a2c:	14202773          	csrr	a4,scause
  if (r_scause() == 8)
    80002a30:	47a1                	li	a5,8
    80002a32:	02f70763          	beq	a4,a5,80002a60 <usertrap+0x68>
  else if ((which_dev = devintr()) != 0)
    80002a36:	00000097          	auipc	ra,0x0
    80002a3a:	f20080e7          	jalr	-224(ra) # 80002956 <devintr>
    80002a3e:	892a                	mv	s2,a0
    80002a40:	c92d                	beqz	a0,80002ab2 <usertrap+0xba>
  if (killed(p))
    80002a42:	8526                	mv	a0,s1
    80002a44:	00000097          	auipc	ra,0x0
    80002a48:	918080e7          	jalr	-1768(ra) # 8000235c <killed>
    80002a4c:	c555                	beqz	a0,80002af8 <usertrap+0x100>
    80002a4e:	a045                	j	80002aee <usertrap+0xf6>
    panic("usertrap: not from user mode");
    80002a50:	00006517          	auipc	a0,0x6
    80002a54:	8d050513          	addi	a0,a0,-1840 # 80008320 <states.0+0x58>
    80002a58:	ffffe097          	auipc	ra,0xffffe
    80002a5c:	ae8080e7          	jalr	-1304(ra) # 80000540 <panic>
    if (killed(p))
    80002a60:	00000097          	auipc	ra,0x0
    80002a64:	8fc080e7          	jalr	-1796(ra) # 8000235c <killed>
    80002a68:	ed1d                	bnez	a0,80002aa6 <usertrap+0xae>
    p->trapframe->epc += 4;
    80002a6a:	6cb8                	ld	a4,88(s1)
    80002a6c:	6f1c                	ld	a5,24(a4)
    80002a6e:	0791                	addi	a5,a5,4
    80002a70:	ef1c                	sd	a5,24(a4)
  asm volatile("csrr %0, sstatus"
    80002a72:	100027f3          	csrr	a5,sstatus
  w_sstatus(r_sstatus() | SSTATUS_SIE);
    80002a76:	0027e793          	ori	a5,a5,2
  asm volatile("csrw sstatus, %0"
    80002a7a:	10079073          	csrw	sstatus,a5
    syscall();
    80002a7e:	00000097          	auipc	ra,0x0
    80002a82:	322080e7          	jalr	802(ra) # 80002da0 <syscall>
  if (killed(p))
    80002a86:	8526                	mv	a0,s1
    80002a88:	00000097          	auipc	ra,0x0
    80002a8c:	8d4080e7          	jalr	-1836(ra) # 8000235c <killed>
    80002a90:	ed31                	bnez	a0,80002aec <usertrap+0xf4>
  usertrapret();
    80002a92:	00000097          	auipc	ra,0x0
    80002a96:	dda080e7          	jalr	-550(ra) # 8000286c <usertrapret>
}
    80002a9a:	60e2                	ld	ra,24(sp)
    80002a9c:	6442                	ld	s0,16(sp)
    80002a9e:	64a2                	ld	s1,8(sp)
    80002aa0:	6902                	ld	s2,0(sp)
    80002aa2:	6105                	addi	sp,sp,32
    80002aa4:	8082                	ret
      exit(-1);
    80002aa6:	557d                	li	a0,-1
    80002aa8:	fffff097          	auipc	ra,0xfffff
    80002aac:	734080e7          	jalr	1844(ra) # 800021dc <exit>
    80002ab0:	bf6d                	j	80002a6a <usertrap+0x72>
  asm volatile("csrr %0, scause"
    80002ab2:	142025f3          	csrr	a1,scause
    printf("usertrap(): unexpected scause %p pid=%d\n", r_scause(), p->pid);
    80002ab6:	5890                	lw	a2,48(s1)
    80002ab8:	00006517          	auipc	a0,0x6
    80002abc:	88850513          	addi	a0,a0,-1912 # 80008340 <states.0+0x78>
    80002ac0:	ffffe097          	auipc	ra,0xffffe
    80002ac4:	aca080e7          	jalr	-1334(ra) # 8000058a <printf>
  asm volatile("csrr %0, sepc"
    80002ac8:	141025f3          	csrr	a1,sepc
  asm volatile("csrr %0, stval"
    80002acc:	14302673          	csrr	a2,stval
    printf("            sepc=%p stval=%p\n", r_sepc(), r_stval());
    80002ad0:	00006517          	auipc	a0,0x6
    80002ad4:	8a050513          	addi	a0,a0,-1888 # 80008370 <states.0+0xa8>
    80002ad8:	ffffe097          	auipc	ra,0xffffe
    80002adc:	ab2080e7          	jalr	-1358(ra) # 8000058a <printf>
    setkilled(p);
    80002ae0:	8526                	mv	a0,s1
    80002ae2:	00000097          	auipc	ra,0x0
    80002ae6:	84e080e7          	jalr	-1970(ra) # 80002330 <setkilled>
    80002aea:	bf71                	j	80002a86 <usertrap+0x8e>
  if (killed(p))
    80002aec:	4901                	li	s2,0
    exit(-1);
    80002aee:	557d                	li	a0,-1
    80002af0:	fffff097          	auipc	ra,0xfffff
    80002af4:	6ec080e7          	jalr	1772(ra) # 800021dc <exit>
  if (which_dev == 2)
    80002af8:	4789                	li	a5,2
    80002afa:	f8f91ce3          	bne	s2,a5,80002a92 <usertrap+0x9a>
    if (p->interval)
    80002afe:	1904a703          	lw	a4,400(s1)
    80002b02:	cf19                	beqz	a4,80002b20 <usertrap+0x128>
      p->now_ticks++;
    80002b04:	1944a783          	lw	a5,404(s1)
    80002b08:	2785                	addiw	a5,a5,1
    80002b0a:	0007869b          	sext.w	a3,a5
    80002b0e:	18f4aa23          	sw	a5,404(s1)
      if (!p->sigalarm_status && p->interval > 0 && p->now_ticks >= p->interval)
    80002b12:	1a04a783          	lw	a5,416(s1)
    80002b16:	e789                	bnez	a5,80002b20 <usertrap+0x128>
    80002b18:	00e05463          	blez	a4,80002b20 <usertrap+0x128>
    80002b1c:	00e6d763          	bge	a3,a4,80002b2a <usertrap+0x132>
    yield();
    80002b20:	fffff097          	auipc	ra,0xfffff
    80002b24:	54c080e7          	jalr	1356(ra) # 8000206c <yield>
    80002b28:	b7ad                	j	80002a92 <usertrap+0x9a>
        p->now_ticks = 0;
    80002b2a:	1804aa23          	sw	zero,404(s1)
        p->sigalarm_status = 1;
    80002b2e:	4785                	li	a5,1
    80002b30:	1af4a023          	sw	a5,416(s1)
        p->alarm_trapframe = kalloc();
    80002b34:	ffffe097          	auipc	ra,0xffffe
    80002b38:	fb2080e7          	jalr	-78(ra) # 80000ae6 <kalloc>
    80002b3c:	18a4bc23          	sd	a0,408(s1)
        memmove(p->alarm_trapframe, p->trapframe, PGSIZE);
    80002b40:	6605                	lui	a2,0x1
    80002b42:	6cac                	ld	a1,88(s1)
    80002b44:	ffffe097          	auipc	ra,0xffffe
    80002b48:	1ea080e7          	jalr	490(ra) # 80000d2e <memmove>
        p->trapframe->epc = p->handler;
    80002b4c:	6cbc                	ld	a5,88(s1)
    80002b4e:	1884b703          	ld	a4,392(s1)
    80002b52:	ef98                	sd	a4,24(a5)
    80002b54:	b7f1                	j	80002b20 <usertrap+0x128>

0000000080002b56 <kerneltrap>:
{
    80002b56:	7179                	addi	sp,sp,-48
    80002b58:	f406                	sd	ra,40(sp)
    80002b5a:	f022                	sd	s0,32(sp)
    80002b5c:	ec26                	sd	s1,24(sp)
    80002b5e:	e84a                	sd	s2,16(sp)
    80002b60:	e44e                	sd	s3,8(sp)
    80002b62:	1800                	addi	s0,sp,48
  asm volatile("csrr %0, sepc"
    80002b64:	14102973          	csrr	s2,sepc
  asm volatile("csrr %0, sstatus"
    80002b68:	100024f3          	csrr	s1,sstatus
  asm volatile("csrr %0, scause"
    80002b6c:	142029f3          	csrr	s3,scause
  if ((sstatus & SSTATUS_SPP) == 0)
    80002b70:	1004f793          	andi	a5,s1,256
    80002b74:	cb85                	beqz	a5,80002ba4 <kerneltrap+0x4e>
  asm volatile("csrr %0, sstatus"
    80002b76:	100027f3          	csrr	a5,sstatus
  return (x & SSTATUS_SIE) != 0;
    80002b7a:	8b89                	andi	a5,a5,2
  if (intr_get() != 0)
    80002b7c:	ef85                	bnez	a5,80002bb4 <kerneltrap+0x5e>
  if ((which_dev = devintr()) == 0)
    80002b7e:	00000097          	auipc	ra,0x0
    80002b82:	dd8080e7          	jalr	-552(ra) # 80002956 <devintr>
    80002b86:	cd1d                	beqz	a0,80002bc4 <kerneltrap+0x6e>
  if (which_dev == 2 && myproc() != 0 && myproc()->state == RUNNING)
    80002b88:	4789                	li	a5,2
    80002b8a:	06f50a63          	beq	a0,a5,80002bfe <kerneltrap+0xa8>
  asm volatile("csrw sepc, %0"
    80002b8e:	14191073          	csrw	sepc,s2
  asm volatile("csrw sstatus, %0"
    80002b92:	10049073          	csrw	sstatus,s1
}
    80002b96:	70a2                	ld	ra,40(sp)
    80002b98:	7402                	ld	s0,32(sp)
    80002b9a:	64e2                	ld	s1,24(sp)
    80002b9c:	6942                	ld	s2,16(sp)
    80002b9e:	69a2                	ld	s3,8(sp)
    80002ba0:	6145                	addi	sp,sp,48
    80002ba2:	8082                	ret
    panic("kerneltrap: not from supervisor mode");
    80002ba4:	00005517          	auipc	a0,0x5
    80002ba8:	7ec50513          	addi	a0,a0,2028 # 80008390 <states.0+0xc8>
    80002bac:	ffffe097          	auipc	ra,0xffffe
    80002bb0:	994080e7          	jalr	-1644(ra) # 80000540 <panic>
    panic("kerneltrap: interrupts enabled");
    80002bb4:	00006517          	auipc	a0,0x6
    80002bb8:	80450513          	addi	a0,a0,-2044 # 800083b8 <states.0+0xf0>
    80002bbc:	ffffe097          	auipc	ra,0xffffe
    80002bc0:	984080e7          	jalr	-1660(ra) # 80000540 <panic>
    printf("scause %p\n", scause);
    80002bc4:	85ce                	mv	a1,s3
    80002bc6:	00006517          	auipc	a0,0x6
    80002bca:	81250513          	addi	a0,a0,-2030 # 800083d8 <states.0+0x110>
    80002bce:	ffffe097          	auipc	ra,0xffffe
    80002bd2:	9bc080e7          	jalr	-1604(ra) # 8000058a <printf>
  asm volatile("csrr %0, sepc"
    80002bd6:	141025f3          	csrr	a1,sepc
  asm volatile("csrr %0, stval"
    80002bda:	14302673          	csrr	a2,stval
    printf("sepc=%p stval=%p\n", r_sepc(), r_stval());
    80002bde:	00006517          	auipc	a0,0x6
    80002be2:	80a50513          	addi	a0,a0,-2038 # 800083e8 <states.0+0x120>
    80002be6:	ffffe097          	auipc	ra,0xffffe
    80002bea:	9a4080e7          	jalr	-1628(ra) # 8000058a <printf>
    panic("kerneltrap");
    80002bee:	00006517          	auipc	a0,0x6
    80002bf2:	81250513          	addi	a0,a0,-2030 # 80008400 <states.0+0x138>
    80002bf6:	ffffe097          	auipc	ra,0xffffe
